 MotorWorking_cgxe

 Timestamp is 665472ee (Mon May 27 13:47:58 2024)

 Preferred load address is 0000000180000000

 Start         Length     Name                   Class
 0001:00000000 00012e80H .text$mn                CODE
 0001:00012e80 00000036H .text$mn$00             CODE
 0001:00012eb6 00000092H .text$x                 CODE
 0002:00000000 00000318H .idata$5                DATA
 0002:00000318 00000038H .00cfg                  DATA
 0002:00000350 00000008H .CRT$XCA                DATA
 0002:00000358 00000008H .CRT$XCZ                DATA
 0002:00000360 00000008H .CRT$XIA                DATA
 0002:00000368 00000008H .CRT$XIZ                DATA
 0002:00000370 00000008H .CRT$XPA                DATA
 0002:00000378 00000008H .CRT$XPZ                DATA
 0002:00000380 00000008H .CRT$XTA                DATA
 0002:00000388 00000008H .CRT$XTZ                DATA
 0002:00000390 00000000H .gehcont$y              DATA
 0002:00000390 00000000H .gfids$y                DATA
 0002:00000390 000003f0H .rdata                  DATA
 0002:00000780 00000080H .rdata$CastGuardVftablesA DATA
 0002:00000800 00000080H .rdata$CastGuardVftablesC DATA
 0002:00000880 000001e4H .rdata$voltmd           DATA
 0002:00000a64 0000027cH .rdata$zzzdbg           DATA
 0002:00000ce0 00000008H .rtc$IAA                DATA
 0002:00000ce8 00000008H .rtc$IZZ                DATA
 0002:00000cf0 00000008H .rtc$TAA                DATA
 0002:00000cf8 00000008H .rtc$TZZ                DATA
 0002:00000d00 00000ca0H .xdata                  DATA
 0002:000019a0 0000007cH .edata                  DATA
 0002:00001a1c 000000c8H .idata$2                DATA
 0002:00001ae4 00000014H .idata$3                DATA
 0002:00001af8 00000318H .idata$4                DATA
 0002:00001e10 00000814H .idata$6                DATA
 0003:00000000 000041c0H .data                   DATA
 0003:000041c0 00000650H .bss                    DATA
 0004:00000000 00000f48H .pdata                  DATA

  Address         Publics by Value              Rva+Base               Lib:Object

 0000:00000000       __AbsoluteZero             0000000000000000     <absolute>
 0000:00000000       ___safe_se_handler_count   0000000000000000     <absolute>
 0000:00000000       ___safe_se_handler_table   0000000000000000     <absolute>
 0000:00000000       __arm64x_extra_rfe_table   0000000000000000     <absolute>
 0000:00000000       __arm64x_extra_rfe_table_size 0000000000000000     <absolute>
 0000:00000000       __arm64x_native_entrypoint 0000000000000000     <absolute>
 0000:00000000       __arm64x_redirection_metadata 0000000000000000     <absolute>
 0000:00000000       __arm64x_redirection_metadata_count 0000000000000000     <absolute>
 0000:00000000       __dynamic_value_reloc_table 0000000000000000     <absolute>
 0000:00000000       __enclave_config           0000000000000000     <absolute>
 0000:00000000       __guard_check_icall_a64n_fptr 0000000000000000     <absolute>
 0000:00000000       __guard_eh_cont_count      0000000000000000     <absolute>
 0000:00000000       __guard_eh_cont_table      0000000000000000     <absolute>
 0000:00000000       __guard_fids_count         0000000000000000     <absolute>
 0000:00000000       __guard_fids_table         0000000000000000     <absolute>
 0000:00000000       __guard_iat_count          0000000000000000     <absolute>
 0000:00000000       __guard_iat_table          0000000000000000     <absolute>
 0000:00000000       __guard_longjmp_count      0000000000000000     <absolute>
 0000:00000000       __guard_longjmp_table      0000000000000000     <absolute>
 0000:00000000       __hybrid_auxiliary_delayload_iat 0000000000000000     <absolute>
 0000:00000000       __hybrid_auxiliary_delayload_iat_copy 0000000000000000     <absolute>
 0000:00000000       __hybrid_auxiliary_iat     0000000000000000     <absolute>
 0000:00000000       __hybrid_auxiliary_iat_copy 0000000000000000     <absolute>
 0000:00000000       __hybrid_code_map          0000000000000000     <absolute>
 0000:00000000       __hybrid_code_map_count    0000000000000000     <absolute>
 0000:00000000       __hybrid_image_info_bitfield 0000000000000000     <absolute>
 0000:00000000       __x64_code_ranges_to_entry_points 0000000000000000     <absolute>
 0000:00000000       __x64_code_ranges_to_entry_points_count 0000000000000000     <absolute>
 0000:00000100       __guard_flags              0000000000000100     <absolute>
 0000:00000000       __ImageBase                0000000180000000     <linker-defined>
 0001:00000000       mexfilerequiredapiversion  0000000180001000 f   c_mexapi_version.obj
 0001:00000030       cgxe_MotorWorking_method_dispatcher 0000000180001030 f   MotorWorking_cgxe.obj
 0001:00000240       method_dispatcher_bg50hRmc6UAsemHLG3AoeE 0000000180001240 f   m_bg50hRmc6UAsemHLG3AoeE.obj
 0001:00002190       cgxe_bg50hRmc6UAsemHLG3AoeE_BuildInfoUpdate 0000000180003190 f   m_bg50hRmc6UAsemHLG3AoeE.obj
 0001:00002320       cgxe_bg50hRmc6UAsemHLG3AoeE_fallback_info 0000000180003320 f   m_bg50hRmc6UAsemHLG3AoeE.obj
 0001:000023c0       method_dispatcher_dYZZzNbePGHHoKucqxRynD 00000001800033c0 f   m_dYZZzNbePGHHoKucqxRynD.obj
 0001:00004310       cgxe_dYZZzNbePGHHoKucqxRynD_BuildInfoUpdate 0000000180005310 f   m_dYZZzNbePGHHoKucqxRynD.obj
 0001:000044a0       cgxe_dYZZzNbePGHHoKucqxRynD_fallback_info 00000001800054a0 f   m_dYZZzNbePGHHoKucqxRynD.obj
 0001:00004540       method_dispatcher_mGg5kldJFMUqqcMFYTCXk 0000000180005540 f   m_mGg5kldJFMUqqcMFYTCXk.obj
 0001:00006490       cgxe_mGg5kldJFMUqqcMFYTCXk_BuildInfoUpdate 0000000180007490 f   m_mGg5kldJFMUqqcMFYTCXk.obj
 0001:00006620       cgxe_mGg5kldJFMUqqcMFYTCXk_fallback_info 0000000180007620 f   m_mGg5kldJFMUqqcMFYTCXk.obj
 0001:000066c0       method_dispatcher_vhCIMhSDxW7vJ4zd5fVmYF 00000001800076c0 f   m_vhCIMhSDxW7vJ4zd5fVmYF.obj
 0001:00008610       cgxe_vhCIMhSDxW7vJ4zd5fVmYF_BuildInfoUpdate 0000000180009610 f   m_vhCIMhSDxW7vJ4zd5fVmYF.obj
 0001:000087a0       cgxe_vhCIMhSDxW7vJ4zd5fVmYF_fallback_info 00000001800097a0 f   m_vhCIMhSDxW7vJ4zd5fVmYF.obj
 0001:00008840       mexFunction                0000000180009840 f   MotorWorking_cgxe_registry.obj
 0001:0000a6b0       _ssSetInputPortDirectFeedThroughFcn 000000018000b6b0 f   MotorWorking_cgxe_registry.obj
 0001:0000a820       _ssSetRWorkValueFcn        000000018000b820 f   MotorWorking_cgxe_registry.obj
 0001:0000a8a0       _ssGetRWorkValueFcn        000000018000b8a0 f   MotorWorking_cgxe_registry.obj
 0001:0000a910       _ssSetIWorkValueFcn        000000018000b910 f   MotorWorking_cgxe_registry.obj
 0001:0000a990       _ssGetIWorkValueFcn        000000018000b990 f   MotorWorking_cgxe_registry.obj
 0001:0000aa00       _ssSetPWorkValueFcn        000000018000ba00 f   MotorWorking_cgxe_registry.obj
 0001:0000aa80       _ssGetPWorkValueFcn        000000018000ba80 f   MotorWorking_cgxe_registry.obj
 0001:0000aaf0       _ssGetInputPortSignalFcn   000000018000baf0 f   MotorWorking_cgxe_registry.obj
 0001:0000ae80       _ssGetInputPortBufferDstPortFcn 000000018000be80 f   MotorWorking_cgxe_registry.obj
 0001:0000af00       _ssGetInputPortSignalPtrsFcn 000000018000bf00 f   MotorWorking_cgxe_registry.obj
 0001:0000b290       ssGetParameterTuningCompliance 000000018000c290 f   MotorWorking_cgxe_registry.obj
 0001:0000b300       _ssReadInputStringFcn      000000018000c300 f   MotorWorking_cgxe_registry.obj
 0001:0000b370       ssGetDTypeIdFromMxArray    000000018000c370 f   MotorWorking_cgxe_registry.obj
 0001:0000b490       ssWriteRTWMx2dMatParam     000000018000c490 f   MotorWorking_cgxe_registry.obj
 0001:0000b520       ssWriteRTWMxVectParam      000000018000c520 f   MotorWorking_cgxe_registry.obj
 0001:0000b5a0       ssWriteRTWParameters       000000018000c5a0 f   MotorWorking_cgxe_registry.obj
 0001:0000bb60       ssWriteRTWParamSettings    000000018000cb60 f   MotorWorking_cgxe_registry.obj
 0001:0000c250       ssWriteRTWStr              000000018000d250 f   MotorWorking_cgxe_registry.obj
 0001:0000c2b0       ssWriteRTWWorkVect         000000018000d2b0 f   MotorWorking_cgxe_registry.obj
 0001:0000c810       ssWarning                  000000018000d810 f   MotorWorking_cgxe_registry.obj
 0001:0000c900       ssGetRootSS                000000018000d900 f   MotorWorking_cgxe_registry.obj
 0001:0000c9c0       ssGetParentSS              000000018000d9c0 f   MotorWorking_cgxe_registry.obj
 0001:0000ca80       ssWriteRTWNameValuePair    000000018000da80 f   MotorWorking_cgxe_registry.obj
 0001:0000cf80       _ssSetInputPortMatrixDimensions 000000018000df80 f   MotorWorking_cgxe_registry.obj
 0001:0000d0d0       _ssSetOutputPortMatrixDimensions 000000018000e0d0 f   MotorWorking_cgxe_registry.obj
 0001:0000d220       _ssSetInputPortVectorDimension 000000018000e220 f   MotorWorking_cgxe_registry.obj
 0001:0000d2d0       _ssSetOutputPortVectorDimension 000000018000e2d0 f   MotorWorking_cgxe_registry.obj
 0001:0000d380       ssIsRunTimeParamTunable    000000018000e380 f   MotorWorking_cgxe_registry.obj
 0001:0000d3f0       ssGetSFuncBlockHandle      000000018000e3f0 f   MotorWorking_cgxe_registry.obj
 0001:0000d460       _ssGetCallSystemNumFcnCallDestinations 000000018000e460 f   MotorWorking_cgxe_registry.obj
 0001:0000d4d0       _ssGetCurrentInputPortWidth 000000018000e4d0 f   MotorWorking_cgxe_registry.obj
 0001:0000d610       _ssGetCurrentOutputPortWidth 000000018000e610 f   MotorWorking_cgxe_registry.obj
 0001:0000d750       ssGetIsZeroCrossControlDisabled 000000018000e750 f   MotorWorking_cgxe_registry.obj
 0001:0000d7c0       ssSetIsInputPortUsedForContZcSignal 000000018000e7c0 f   MotorWorking_cgxe_registry.obj
 0001:0000d830       ssSetZcSignalIsZcElementDisc 000000018000e830 f   MotorWorking_cgxe_registry.obj
 0001:0000d8e0       ssSetZcSignalName          000000018000e8e0 f   MotorWorking_cgxe_registry.obj
 0001:0000d950       ssSetZcSignalWidth         000000018000e950 f   MotorWorking_cgxe_registry.obj
 0001:0000d9c0       ssSetZcSignalZcEventType   000000018000e9c0 f   MotorWorking_cgxe_registry.obj
 0001:0000da30       ssSetZcSignalType          000000018000ea30 f   MotorWorking_cgxe_registry.obj
 0001:0000daa0       ssSetZcSignalZcTol         000000018000eaa0 f   MotorWorking_cgxe_registry.obj
 0001:0000db10       ssSetZcSignalNeedsEventNotification 000000018000eb10 f   MotorWorking_cgxe_registry.obj
 0001:0000db80       ssCreateAndAddZcSignalInfo 000000018000eb80 f   MotorWorking_cgxe_registry.obj
 0001:0000dbf0       ssCloneAndAddZcSignalInfo  000000018000ebf0 f   MotorWorking_cgxe_registry.obj
 0001:0000dc60       ssGetNumZcSignals          000000018000ec60 f   MotorWorking_cgxe_registry.obj
 0001:0000dcd0       ssGetZcSignalVector        000000018000ecd0 f   MotorWorking_cgxe_registry.obj
 0001:0000dd40       ssGetZcSignalName          000000018000ed40 f   MotorWorking_cgxe_registry.obj
 0001:0000ddb0       ssGetZcSignalWidth         000000018000edb0 f   MotorWorking_cgxe_registry.obj
 0001:0000de20       ssGetZcSignalZcEventType   000000018000ee20 f   MotorWorking_cgxe_registry.obj
 0001:0000de90       ssGetZcSignalZcEvents      000000018000ee90 f   MotorWorking_cgxe_registry.obj
 0001:0000df00       ssGetZcSignalType          000000018000ef00 f   MotorWorking_cgxe_registry.obj
 0001:0000df70       ssGetZcSignalZcTol         000000018000ef70 f   MotorWorking_cgxe_registry.obj
 0001:0000dff0       ssGetZcSignalNeedsEventNotification 000000018000eff0 f   MotorWorking_cgxe_registry.obj
 0001:0000e060       ssGetZcSignalIsZcElementDisc 000000018000f060 f   MotorWorking_cgxe_registry.obj
 0001:0000e100       ssGetIsInputPortElementContinuous 000000018000f100 f   MotorWorking_cgxe_registry.obj
 0001:0000e1a0       _ssGetAbsTol               000000018000f1a0 f   MotorWorking_cgxe_registry.obj
 0001:0000e210       _ssSetStateAbsTol          000000018000f210 f   MotorWorking_cgxe_registry.obj
 0001:0000e2f0       _ssSetInputPortReusableFcn 000000018000f2f0 f   MotorWorking_cgxe_registry.obj
 0001:0000e3f0       _ssSetOutputPortReusableFcn 000000018000f3f0 f   MotorWorking_cgxe_registry.obj
 0001:0000e4f0       _ssSetSymbolicDimsSupport  000000018000f4f0 f   MotorWorking_cgxe_registry.obj
 0001:0000e560       _ssRegisterSymbolicDimsExpr 000000018000f560 f   MotorWorking_cgxe_registry.obj
 0001:0000e5e0       _ssRegisterSymbolicDimsMATLABExpr 000000018000f5e0 f   MotorWorking_cgxe_registry.obj
 0001:0000e670       _ssRegisterSymbolicDims    000000018000f670 f   MotorWorking_cgxe_registry.obj
 0001:0000e710       _ssRegisterSymbolicDimsString 000000018000f710 f   MotorWorking_cgxe_registry.obj
 0001:0000e790       _ssRegisterSymbolicDimsIntValue 000000018000f790 f   MotorWorking_cgxe_registry.obj
 0001:0000e800       _ssRegisterSymbolicEqualRelation 000000018000f800 f   MotorWorking_cgxe_registry.obj
 0001:0000e870       _ssRegisterSymbolicEqualValue 000000018000f870 f   MotorWorking_cgxe_registry.obj
 0001:0000e8e0       _ssAmendLeadingSymbolicDims 000000018000f8e0 f   MotorWorking_cgxe_registry.obj
 0001:0000e960       _ssAmendTrailingSymbolicDims 000000018000f960 f   MotorWorking_cgxe_registry.obj
 0001:0000e9e0       _ssRegisterSymbolicDimsPlus 000000018000f9e0 f   MotorWorking_cgxe_registry.obj
 0001:0000ea60       _ssRegisterSymbolicDimsMinus 000000018000fa60 f   MotorWorking_cgxe_registry.obj
 0001:0000eae0       _ssRegisterSymbolicDimsMultiply 000000018000fae0 f   MotorWorking_cgxe_registry.obj
 0001:0000eb60       _ssRegisterSymbolicDimsDivide 000000018000fb60 f   MotorWorking_cgxe_registry.obj
 0001:0000ebe0       _ssGetNumSymbolicDims      000000018000fbe0 f   MotorWorking_cgxe_registry.obj
 0001:0000ec50       _ssGetSymbolicDim          000000018000fc50 f   MotorWorking_cgxe_registry.obj
 0001:0000ecd0       _ssSetInputPortSymbolicDimsId 000000018000fcd0 f   MotorWorking_cgxe_registry.obj
 0001:0000ed40       _ssGetCompInputPortSymbolicDimsId 000000018000fd40 f   MotorWorking_cgxe_registry.obj
 0001:0000edb0       _ssSetCompInputPortSymbolicDimsId 000000018000fdb0 f   MotorWorking_cgxe_registry.obj
 0001:0000ee20       _ssSetOutputPortSymbolicDimsId 000000018000fe20 f   MotorWorking_cgxe_registry.obj
 0001:0000ee90       _ssGetCompOutputPortSymbolicDimsId 000000018000fe90 f   MotorWorking_cgxe_registry.obj
 0001:0000ef00       _ssSetCompOutputPortSymbolicDimsId 000000018000ff00 f   MotorWorking_cgxe_registry.obj
 0001:0000ef70       _ssGetDWorkSymbolicDimsId  000000018000ff70 f   MotorWorking_cgxe_registry.obj
 0001:0000efe0       _ssSetDWorkSymbolicDimsId  000000018000ffe0 f   MotorWorking_cgxe_registry.obj
 0001:0000f050       _ssGetCompDWorkSymbolicDimsId 0000000180010050 f   MotorWorking_cgxe_registry.obj
 0001:0000f0c0       _ssSetCompDWorkSymbolicDimsId 00000001800100c0 f   MotorWorking_cgxe_registry.obj
 0001:0000f130       _ssCreateSLCGStringBuffer  0000000180010130 f   MotorWorking_cgxe_registry.obj
 0001:0000f1a0       _ssAddToSLCGStringBuffer   00000001800101a0 f   MotorWorking_cgxe_registry.obj
 0001:0000f210       _ssGetPointerContainedData 0000000180010210 f   MotorWorking_cgxe_registry.obj
 0001:0000f2a0       _ssGetPointerContainedDataWidth 00000001800102a0 f   MotorWorking_cgxe_registry.obj
 0001:0000f330       _ssRegisterDynamicArrayDataTypeFcn 0000000180010330 f   MotorWorking_cgxe_registry.obj
 0001:0000f3d0       _ssGetDynamicArrayContainedDataCurrentWidthFcn 00000001800103d0 f   MotorWorking_cgxe_registry.obj
 0001:0000f4a0       _ssGetDynamicArrayContainedDataFcn 00000001800104a0 f   MotorWorking_cgxe_registry.obj
 0001:0000f570       _ssGetInputPortDynamicArrayDataFcn 0000000180010570 f   MotorWorking_cgxe_registry.obj
 0001:0000f630       _ssGetOutputPortDynamicArrayDataFcn 0000000180010630 f   MotorWorking_cgxe_registry.obj
 0001:0000f6f0       _ssGetInputPortDynamicArrayContainedDataFcn 00000001800106f0 f   MotorWorking_cgxe_registry.obj
 0001:0000f7b0       _ssGetOutputPortDynamicArrayContainedDataFcn 00000001800107b0 f   MotorWorking_cgxe_registry.obj
 0001:0000f870       _ssGetDynamicArrayDWorkContainedDataFcn 0000000180010870 f   MotorWorking_cgxe_registry.obj
 0001:00011660       __local_stdio_printf_options 0000000180012660 f i MotorWorking_cgxe_registry.obj
 0001:00011670       _vsnprintf_l               0000000180012670 f i MotorWorking_cgxe_registry.obj
 0001:000116f0       _vsprintf_l                00000001800126f0 f i MotorWorking_cgxe_registry.obj
 0001:00011740       sprintf                    0000000180012740 f i MotorWorking_cgxe_registry.obj
 0001:0001178f       mxSetCell_800              000000018001278f f   libmx:libmx.dll
 0001:00011795       mxSetFieldByNumber_800     0000000180012795 f   libmx:libmx.dll
 0001:0001179b       mxCreateString_800         000000018001279b f   libmx:libmx.dll
 0001:000117a1       mxCreateCellMatrix_800     00000001800127a1 f   libmx:libmx.dll
 0001:000117a7       mxCreateStructMatrix_800   00000001800127a7 f   libmx:libmx.dll
 0001:000117ad       mxCalloc_800               00000001800127ad f   libmx:libmx.dll
 0001:000117b3       mxGetM_800                 00000001800127b3 f   libmx:libmx.dll
 0001:000117b9       mxGetClassID_800           00000001800127b9 f   libmx:libmx.dll
 0001:000117bf       mxGetData_800              00000001800127bf f   libmx:libmx.dll
 0001:000117c5       mxIsNumeric_800            00000001800127c5 f   libmx:libmx.dll
 0001:000117cb       mxIsChar_800               00000001800127cb f   libmx:libmx.dll
 0001:000117d1       mxIsComplex_800            00000001800127d1 f   libmx:libmx.dll
 0001:000117d7       mxGetN_800                 00000001800127d7 f   libmx:libmx.dll
 0001:000117dd       mxGetPr_800                00000001800127dd f   libmx:libmx.dll
 0001:000117e3       mxSetField_800             00000001800127e3 f   libmx:libmx.dll
 0001:000117e9       mxCreateNumericMatrix_800  00000001800127e9 f   libmx:libmx.dll
 0001:000117ef       mxCreateDoubleMatrix_800   00000001800127ef f   libmx:libmx.dll
 0001:000117f5       mxCreateDoubleScalar_800   00000001800127f5 f   libmx:libmx.dll
 0001:000117fb       mxGetString_800            00000001800127fb f   libmx:libmx.dll
 0001:00011801       mexWarnMsgTxt_800          0000000180012801 f   libmex:libmex.dll
 0001:00011807       mexPrintf_800              0000000180012807 f   libmex:libmex.dll
 0001:0001180d       mexCallMATLAB_800          000000018001280d f   libmex:libmex.dll
 0001:00011813       mexUnlock_800              0000000180012813 f   libmex:libmex.dll
 0001:00011819       mexIsLocked_800            0000000180012819 f   libmex:libmex.dll
 0001:0001181f       emlrtAlias                 000000018001281f f   libemlrt:libemlrt.dll
 0001:00011825       emlrtAssign                0000000180012825 f   libemlrt:libemlrt.dll
 0001:0001182b       emlrtCreateStructMatrix    000000018001282b f   libemlrt:libemlrt.dll
 0001:00011831       emlrtGetFieldR2017b        0000000180012831 f   libemlrt:libemlrt.dll
 0001:00011837       emlrtSetFieldR2017b        0000000180012837 f   libemlrt:libemlrt.dll
 0001:0001183d       emlrtCreateCellMatrix      000000018001283d f   libemlrt:libemlrt.dll
 0001:00011843       emlrtSetCell               0000000180012843 f   libemlrt:libemlrt.dll
 0001:00011849       emlrtGetCell               0000000180012849 f   libemlrt:libemlrt.dll
 0001:0001184f       emlrtCreateNumericMatrix   000000018001284f f   libemlrt:libemlrt.dll
 0001:00011855       emlrtCreateLogicalScalar   0000000180012855 f   libemlrt:libemlrt.dll
 0001:0001185b       emlrtCreateCharArray       000000018001285b f   libemlrt:libemlrt.dll
 0001:00011861       emlrtDestroyArray          0000000180012861 f   libemlrt:libemlrt.dll
 0001:00011867       emlrtCallMATLABR2012b      0000000180012867 f   libemlrt:libemlrt.dll
 0001:0001186d       emlrtInitCharArrayR2013a   000000018001286d f   libemlrt:libemlrt.dll
 0001:00011873       emlrtCheckBuiltInR2012b    0000000180012873 f   libemlrt:libemlrt.dll
 0001:00011879       emlrtCheckStructR2012b     0000000180012879 f   libemlrt:libemlrt.dll
 0001:0001187f       emlrtMxGetData             000000018001287f f   libemlrt:libemlrt.dll
 0001:00011885       emlrtMxGetLogicals         0000000180012885 f   libemlrt:libemlrt.dll
 0001:0001188b       cgxertGetInputPortSignal   000000018001288b f   libmwcgxert:libmwcgxert.dll
 0001:00011891       cgxertGetRuntimeInstance   0000000180012891 f   libmwcgxert:libmwcgxert.dll
 0001:00011897       cgxertSetRuntimeInstance   0000000180012897 f   libmwcgxert:libmwcgxert.dll
 0001:0001189d       cgxertGetEMLRTCtx          000000018001289d f   libmwcgxert:libmwcgxert.dll
 0001:000118a3       cgxertSetGcb               00000001800128a3 f   libmwcgxert:libmwcgxert.dll
 0001:000118a9       cgxertRestoreGcb           00000001800128a9 f   libmwcgxert:libmwcgxert.dll
 0001:000118b0       __GSHandlerCheck           00000001800128b0 f   MSVCRT:gshandler.obj
 0001:000118d0       __GSHandlerCheckCommon     00000001800128d0 f   MSVCRT:gshandler.obj
 0001:00011940       __security_check_cookie    0000000180012940 f   MSVCRT:amdsecgs.obj
 0001:00011960       __raise_securityfailure    0000000180012960 f   MSVCRT:gs_report.obj
 0001:00011994       __report_gsfailure         0000000180012994 f   MSVCRT:gs_report.obj
 0001:00011a68       __report_rangecheckfailure 0000000180012a68 f   MSVCRT:gs_report.obj
 0001:00011a7c       __report_securityfailure   0000000180012a7c f   MSVCRT:gs_report.obj
 0001:00011b18       __report_securityfailureEx 0000000180012b18 f   MSVCRT:gs_report.obj
 0001:00012048       _CRT_INIT                  0000000180013048 f   MSVCRT:dll_dllmain.obj
 0001:00012050       _DllMainCRTStartup         0000000180013050 f   MSVCRT:dll_dllmain.obj
 0001:000120fc       __security_init_cookie     00000001800130fc f   MSVCRT:gs_support.obj
 0001:000121a8       DllMain                    00000001800131a8 f   MSVCRT:dll_dllmain_stub.obj
 0001:000121cc       ?__scrt_initialize_type_info@@YAXXZ 00000001800131cc f   MSVCRT:tncleanup.obj
 0001:000121dc       ?__scrt_uninitialize_type_info@@YAXXZ 00000001800131dc f   MSVCRT:tncleanup.obj
 0001:000121e8       __local_stdio_scanf_options 00000001800131e8 f i MSVCRT:default_local_stdio_options.obj
 0001:000121f0       __scrt_initialize_default_local_stdio_options 00000001800131f0 f   MSVCRT:default_local_stdio_options.obj
 0001:0001220c       ?configure_argv@__scrt_narrow_argv_policy@@SAHXZ 000000018001320c f i MSVCRT:utility.obj
 0001:0001226c       ?initialize_environment@__scrt_narrow_environment_policy@@SAHXZ 000000018001326c f i MSVCRT:utility.obj
 0001:000122a4       NtCurrentTeb               00000001800132a4 f i MSVCRT:utility.obj
 0001:000122b0       __scrt_acquire_startup_lock 00000001800132b0 f   MSVCRT:utility.obj
 0001:000122ec       __scrt_dllmain_after_initialize_c 00000001800132ec f   MSVCRT:utility.obj
 0001:00012320       __scrt_dllmain_before_initialize_c 0000000180013320 f   MSVCRT:utility.obj
 0001:00012338       __scrt_dllmain_crt_thread_attach 0000000180013338 f   MSVCRT:utility.obj
 0001:00012360       __scrt_dllmain_crt_thread_detach 0000000180013360 f   MSVCRT:utility.obj
 0001:00012378       __scrt_dllmain_exception_filter 0000000180013378 f   MSVCRT:utility.obj
 0001:000123d8       __scrt_dllmain_uninitialize_c 00000001800133d8 f   MSVCRT:utility.obj
 0001:00012408       __scrt_dllmain_uninitialize_critical 0000000180013408 f   MSVCRT:utility.obj
 0001:0001241c       __scrt_initialize_crt      000000018001341c f   MSVCRT:utility.obj
 0001:00012468       __scrt_initialize_onexit_tables 0000000180013468 f   MSVCRT:utility.obj
 0001:000124f4       __scrt_is_nonwritable_in_current_image 00000001800134f4 f   MSVCRT:utility.obj
 0001:0001258c       __scrt_release_startup_lock 000000018001358c f   MSVCRT:utility.obj
 0001:000125b0       __scrt_uninitialize_crt    00000001800135b0 f   MSVCRT:utility.obj
 0001:000125dc       _onexit                    00000001800135dc f   MSVCRT:utility.obj
 0001:00012618       at_quick_exit              0000000180013618 f   MSVCRT:utility.obj
 0001:00012638       atexit                     0000000180013638 f   MSVCRT:utility.obj
 0001:00012650       __scrt_get_dyn_tls_init_callback 0000000180013650 f   MSVCRT:dyn_tls_init.obj
 0001:00012658       __crt_debugger_hook        0000000180013658 f   MSVCRT:utility_desktop.obj
 0001:00012660       __scrt_fastfail            0000000180013660 f   MSVCRT:utility_desktop.obj
 0001:000127ac       __scrt_get_show_window_mode 00000001800137ac f   MSVCRT:utility_desktop.obj
 0001:000127e8       __scrt_initialize_mta      00000001800137e8 f   MSVCRT:utility_desktop.obj
 0001:000127f0       __scrt_initialize_winrt    00000001800137f0 f   MSVCRT:utility_desktop.obj
 0001:000127f4       __scrt_is_managed_app      00000001800137f4 f   MSVCRT:utility_desktop.obj
 0001:00012848       __scrt_set_unhandled_exception_filter 0000000180013848 f   MSVCRT:utility_desktop.obj
 0001:00012858       __scrt_exe_initialize_mta  0000000180013858 f   MSVCRT:utility_desktop.obj
 0001:00012858       __scrt_stub_for_initialize_mta 0000000180013858 f   MSVCRT:utility_desktop.obj
 0001:0001285c       __scrt_unhandled_exception_filter 000000018001385c f   MSVCRT:utility_desktop.obj
 0001:000128b8       _RTC_Initialize            00000001800138b8 f   MSVCRT:initsect.obj
 0001:000128f4       _RTC_Terminate             00000001800138f4 f   MSVCRT:initsect.obj
 0001:00012930       _guard_check_icall_nop     0000000180013930 f i MSVCRT:guard_support.obj
 0001:00012934       ReadNoFence64              0000000180013934 f i MSVCRT:guard_support.obj
 0001:00012938       ReadPointerNoFence         0000000180013938 f i MSVCRT:guard_support.obj
 0001:0001293c       __castguard_check_failure_debugbreak 000000018001393c f i MSVCRT:guard_support.obj
 0001:00012958       __castguard_check_failure_fastfail 0000000180013958 f i MSVCRT:guard_support.obj
 0001:0001297c       __castguard_check_failure_nop 000000018001397c f i MSVCRT:guard_support.obj
 0001:00012980       __castguard_check_failure_os_handled 0000000180013980 f i MSVCRT:guard_support.obj
 0001:000129dc       __castguard_check_failure_user_handled 00000001800139dc f i MSVCRT:guard_support.obj
 0001:00012a50       __castguard_set_user_handler 0000000180013a50 f i MSVCRT:guard_support.obj
 0001:00012a5c       __castguard_slow_path_check_debugbreak 0000000180013a5c f i MSVCRT:guard_support.obj
 0001:00012a90       __castguard_slow_path_check_fastfail 0000000180013a90 f i MSVCRT:guard_support.obj
 0001:00012acc       __castguard_slow_path_check_nop 0000000180013acc f i MSVCRT:guard_support.obj
 0001:00012ad0       __castguard_slow_path_check_os_handled 0000000180013ad0 f i MSVCRT:guard_support.obj
 0001:00012b24       __castguard_slow_path_check_user_handled 0000000180013b24 f i MSVCRT:guard_support.obj
 0001:00012b90       _guard_icall_checks_enforced 0000000180013b90 f i MSVCRT:guard_support.obj
 0001:00012ba8       _guard_rf_checks_enforced  0000000180013ba8 f i MSVCRT:guard_support.obj
 0001:00012bac       __isa_available_init       0000000180013bac f   MSVCRT:cpu_disp.obj
 0001:00012d58       _get_startup_argv_mode     0000000180013d58 f   MSVCRT:argv_mode.obj
 0001:00012d60       __scrt_is_ucrt_dll_in_use  0000000180013d60 f   MSVCRT:ucrt_detection.obj
 0001:00012d70       RtlCaptureContext          0000000180013d70 f   kernel32:KERNEL32.dll
 0001:00012d76       RtlLookupFunctionEntry     0000000180013d76 f   kernel32:KERNEL32.dll
 0001:00012d7c       RtlVirtualUnwind           0000000180013d7c f   kernel32:KERNEL32.dll
 0001:00012d82       UnhandledExceptionFilter   0000000180013d82 f   kernel32:KERNEL32.dll
 0001:00012d88       SetUnhandledExceptionFilter 0000000180013d88 f   kernel32:KERNEL32.dll
 0001:00012d8e       GetCurrentProcess          0000000180013d8e f   kernel32:KERNEL32.dll
 0001:00012d94       TerminateProcess           0000000180013d94 f   kernel32:KERNEL32.dll
 0001:00012d9a       IsProcessorFeaturePresent  0000000180013d9a f   kernel32:KERNEL32.dll
 0001:00012da0       QueryPerformanceCounter    0000000180013da0 f   kernel32:KERNEL32.dll
 0001:00012da6       GetCurrentProcessId        0000000180013da6 f   kernel32:KERNEL32.dll
 0001:00012dac       GetCurrentThreadId         0000000180013dac f   kernel32:KERNEL32.dll
 0001:00012db2       GetSystemTimeAsFileTime    0000000180013db2 f   kernel32:KERNEL32.dll
 0001:00012db8       DisableThreadLibraryCalls  0000000180013db8 f   kernel32:KERNEL32.dll
 0001:00012dbe       InitializeSListHead        0000000180013dbe f   kernel32:KERNEL32.dll
 0001:00012dc4       IsDebuggerPresent          0000000180013dc4 f   kernel32:KERNEL32.dll
 0001:00012dca       GetStartupInfoW            0000000180013dca f   kernel32:KERNEL32.dll
 0001:00012dd0       GetModuleHandleW           0000000180013dd0 f   kernel32:KERNEL32.dll
 0001:00012dd6       memcpy                     0000000180013dd6 f   vcruntime:VCRUNTIME140.dll
 0001:00012ddc       __C_specific_handler       0000000180013ddc f   vcruntime:VCRUNTIME140.dll
 0001:00012de2       __std_type_info_destroy_list 0000000180013de2 f   vcruntime:VCRUNTIME140.dll
 0001:00012de8       __current_exception        0000000180013de8 f   vcruntime:VCRUNTIME140.dll
 0001:00012dee       __current_exception_context 0000000180013dee f   vcruntime:VCRUNTIME140.dll
 0001:00012df4       memset                     0000000180013df4 f   vcruntime:VCRUNTIME140.dll
 0001:00012dfa       calloc                     0000000180013dfa f   ucrt:api-ms-win-crt-heap-l1-1-0.dll
 0001:00012e00       free                       0000000180013e00 f   ucrt:api-ms-win-crt-heap-l1-1-0.dll
 0001:00012e06       strcmp                     0000000180013e06 f   ucrt:api-ms-win-crt-string-l1-1-0.dll
 0001:00012e0c       strlen                     0000000180013e0c f   ucrt:api-ms-win-crt-string-l1-1-0.dll
 0001:00012e12       __stdio_common_vsprintf    0000000180013e12 f   ucrt:api-ms-win-crt-stdio-l1-1-0.dll
 0001:00012e18       malloc                     0000000180013e18 f   ucrt:api-ms-win-crt-heap-l1-1-0.dll
 0001:00012e1e       _initterm                  0000000180013e1e f   ucrt:api-ms-win-crt-runtime-l1-1-0.dll
 0001:00012e24       _initterm_e                0000000180013e24 f   ucrt:api-ms-win-crt-runtime-l1-1-0.dll
 0001:00012e2a       _seh_filter_dll            0000000180013e2a f   ucrt:api-ms-win-crt-runtime-l1-1-0.dll
 0001:00012e30       _configure_narrow_argv     0000000180013e30 f   ucrt:api-ms-win-crt-runtime-l1-1-0.dll
 0001:00012e36       _initialize_narrow_environment 0000000180013e36 f   ucrt:api-ms-win-crt-runtime-l1-1-0.dll
 0001:00012e3c       _initialize_onexit_table   0000000180013e3c f   ucrt:api-ms-win-crt-runtime-l1-1-0.dll
 0001:00012e42       _register_onexit_function  0000000180013e42 f   ucrt:api-ms-win-crt-runtime-l1-1-0.dll
 0001:00012e48       _execute_onexit_table      0000000180013e48 f   ucrt:api-ms-win-crt-runtime-l1-1-0.dll
 0001:00012e4e       _crt_atexit                0000000180013e4e f   ucrt:api-ms-win-crt-runtime-l1-1-0.dll
 0001:00012e54       _crt_at_quick_exit         0000000180013e54 f   ucrt:api-ms-win-crt-runtime-l1-1-0.dll
 0001:00012e5a       _cexit                     0000000180013e5a f   ucrt:api-ms-win-crt-runtime-l1-1-0.dll
 0001:00012e60       terminate                  0000000180013e60 f   ucrt:api-ms-win-crt-runtime-l1-1-0.dll
 0001:00012e68       __acrt_initialize          0000000180013e68 f   MSVCRT:ucrt_stubs.obj
 0001:00012e68       __scrt_stub_for_acrt_initialize 0000000180013e68 f   MSVCRT:ucrt_stubs.obj
 0001:00012e68       __vcrt_initialize          0000000180013e68 f   MSVCRT:ucrt_stubs.obj
 0001:00012e6c       __acrt_thread_attach       0000000180013e6c f   MSVCRT:ucrt_stubs.obj
 0001:00012e6c       __scrt_stub_for_acrt_thread_attach 0000000180013e6c f   MSVCRT:ucrt_stubs.obj
 0001:00012e6c       __vcrt_thread_attach       0000000180013e6c f   MSVCRT:ucrt_stubs.obj
 0001:00012e70       __acrt_thread_detach       0000000180013e70 f   MSVCRT:ucrt_stubs.obj
 0001:00012e70       __scrt_stub_for_acrt_thread_detach 0000000180013e70 f   MSVCRT:ucrt_stubs.obj
 0001:00012e70       __vcrt_thread_detach       0000000180013e70 f   MSVCRT:ucrt_stubs.obj
 0001:00012e74       __acrt_uninitialize        0000000180013e74 f   MSVCRT:ucrt_stubs.obj
 0001:00012e74       __scrt_stub_for_acrt_uninitialize 0000000180013e74 f   MSVCRT:ucrt_stubs.obj
 0001:00012e74       __vcrt_uninitialize        0000000180013e74 f   MSVCRT:ucrt_stubs.obj
 0001:00012e78       __acrt_uninitialize_critical 0000000180013e78 f   MSVCRT:ucrt_stubs.obj
 0001:00012e78       __scrt_stub_for_acrt_uninitialize_critical 0000000180013e78 f   MSVCRT:ucrt_stubs.obj
 0001:00012e78       __vcrt_uninitialize_critical 0000000180013e78 f   MSVCRT:ucrt_stubs.obj
 0001:00012e7c       __scrt_stub_for_is_c_termination_complete 0000000180013e7c f   MSVCRT:ucrt_stubs.obj
 0001:00012e7c       _is_c_termination_complete 0000000180013e7c f   MSVCRT:ucrt_stubs.obj
 0001:00012e90       _guard_dispatch_icall_nop  0000000180013e90 f   MSVCRT:guard_dispatch.obj
 0001:00012eb0       _guard_xfg_dispatch_icall_nop 0000000180013eb0 f   MSVCRT:guard_xfg_dispatch.obj
 0002:00000000       __imp_GetCurrentThreadId   0000000180014000     kernel32:KERNEL32.dll
 0002:00000008       __imp_IsDebuggerPresent    0000000180014008     kernel32:KERNEL32.dll
 0002:00000010       __imp_GetStartupInfoW      0000000180014010     kernel32:KERNEL32.dll
 0002:00000018       __imp_RtlCaptureContext    0000000180014018     kernel32:KERNEL32.dll
 0002:00000020       __imp_RtlLookupFunctionEntry 0000000180014020     kernel32:KERNEL32.dll
 0002:00000028       __imp_RtlVirtualUnwind     0000000180014028     kernel32:KERNEL32.dll
 0002:00000030       __imp_UnhandledExceptionFilter 0000000180014030     kernel32:KERNEL32.dll
 0002:00000038       __imp_SetUnhandledExceptionFilter 0000000180014038     kernel32:KERNEL32.dll
 0002:00000040       __imp_GetCurrentProcess    0000000180014040     kernel32:KERNEL32.dll
 0002:00000048       __imp_TerminateProcess     0000000180014048     kernel32:KERNEL32.dll
 0002:00000050       __imp_IsProcessorFeaturePresent 0000000180014050     kernel32:KERNEL32.dll
 0002:00000058       __imp_QueryPerformanceCounter 0000000180014058     kernel32:KERNEL32.dll
 0002:00000060       __imp_GetCurrentProcessId  0000000180014060     kernel32:KERNEL32.dll
 0002:00000068       __imp_InitializeSListHead  0000000180014068     kernel32:KERNEL32.dll
 0002:00000070       __imp_GetSystemTimeAsFileTime 0000000180014070     kernel32:KERNEL32.dll
 0002:00000078       __imp_DisableThreadLibraryCalls 0000000180014078     kernel32:KERNEL32.dll
 0002:00000080       __imp_GetModuleHandleW     0000000180014080     kernel32:KERNEL32.dll
 0002:00000088       \177KERNEL32_NULL_THUNK_DATA 0000000180014088     kernel32:KERNEL32.dll
 0002:00000090       __imp___current_exception  0000000180014090     vcruntime:VCRUNTIME140.dll
 0002:00000098       __imp___std_type_info_destroy_list 0000000180014098     vcruntime:VCRUNTIME140.dll
 0002:000000a0       __imp___C_specific_handler 00000001800140a0     vcruntime:VCRUNTIME140.dll
 0002:000000a8       __imp_memset               00000001800140a8     vcruntime:VCRUNTIME140.dll
 0002:000000b0       __imp___current_exception_context 00000001800140b0     vcruntime:VCRUNTIME140.dll
 0002:000000b8       __imp_memcpy               00000001800140b8     vcruntime:VCRUNTIME140.dll
 0002:000000c0       \177VCRUNTIME140_NULL_THUNK_DATA 00000001800140c0     vcruntime:VCRUNTIME140.dll
 0002:000000c8       __imp_calloc               00000001800140c8     ucrt:api-ms-win-crt-heap-l1-1-0.dll
 0002:000000d0       __imp_malloc               00000001800140d0     ucrt:api-ms-win-crt-heap-l1-1-0.dll
 0002:000000d8       __imp_free                 00000001800140d8     ucrt:api-ms-win-crt-heap-l1-1-0.dll
 0002:000000e0       \177api-ms-win-crt-heap-l1-1-0_NULL_THUNK_DATA 00000001800140e0     ucrt:api-ms-win-crt-heap-l1-1-0.dll
 0002:000000e8       __imp__seh_filter_dll      00000001800140e8     ucrt:api-ms-win-crt-runtime-l1-1-0.dll
 0002:000000f0       __imp__configure_narrow_argv 00000001800140f0     ucrt:api-ms-win-crt-runtime-l1-1-0.dll
 0002:000000f8       __imp__initialize_narrow_environment 00000001800140f8     ucrt:api-ms-win-crt-runtime-l1-1-0.dll
 0002:00000100       __imp__initialize_onexit_table 0000000180014100     ucrt:api-ms-win-crt-runtime-l1-1-0.dll
 0002:00000108       __imp__initterm_e          0000000180014108     ucrt:api-ms-win-crt-runtime-l1-1-0.dll
 0002:00000110       __imp__execute_onexit_table 0000000180014110     ucrt:api-ms-win-crt-runtime-l1-1-0.dll
 0002:00000118       __imp__crt_atexit          0000000180014118     ucrt:api-ms-win-crt-runtime-l1-1-0.dll
 0002:00000120       __imp__crt_at_quick_exit   0000000180014120     ucrt:api-ms-win-crt-runtime-l1-1-0.dll
 0002:00000128       __imp__cexit               0000000180014128     ucrt:api-ms-win-crt-runtime-l1-1-0.dll
 0002:00000130       __imp_terminate            0000000180014130     ucrt:api-ms-win-crt-runtime-l1-1-0.dll
 0002:00000138       __imp__register_onexit_function 0000000180014138     ucrt:api-ms-win-crt-runtime-l1-1-0.dll
 0002:00000140       __imp__initterm            0000000180014140     ucrt:api-ms-win-crt-runtime-l1-1-0.dll
 0002:00000148       \177api-ms-win-crt-runtime-l1-1-0_NULL_THUNK_DATA 0000000180014148     ucrt:api-ms-win-crt-runtime-l1-1-0.dll
 0002:00000150       __imp___stdio_common_vsprintf 0000000180014150     ucrt:api-ms-win-crt-stdio-l1-1-0.dll
 0002:00000158       \177api-ms-win-crt-stdio-l1-1-0_NULL_THUNK_DATA 0000000180014158     ucrt:api-ms-win-crt-stdio-l1-1-0.dll
 0002:00000160       __imp_strlen               0000000180014160     ucrt:api-ms-win-crt-string-l1-1-0.dll
 0002:00000168       __imp_strcmp               0000000180014168     ucrt:api-ms-win-crt-string-l1-1-0.dll
 0002:00000170       \177api-ms-win-crt-string-l1-1-0_NULL_THUNK_DATA 0000000180014170     ucrt:api-ms-win-crt-string-l1-1-0.dll
 0002:00000178       __imp_emlrtMxGetLogicals   0000000180014178     libemlrt:libemlrt.dll
 0002:00000180       __imp_emlrtMxGetData       0000000180014180     libemlrt:libemlrt.dll
 0002:00000188       __imp_emlrtAlias           0000000180014188     libemlrt:libemlrt.dll
 0002:00000190       __imp_emlrtAssign          0000000180014190     libemlrt:libemlrt.dll
 0002:00000198       __imp_emlrtCheckStructR2012b 0000000180014198     libemlrt:libemlrt.dll
 0002:000001a0       __imp_emlrtCheckBuiltInR2012b 00000001800141a0     libemlrt:libemlrt.dll
 0002:000001a8       __imp_emlrtCallMATLABR2012b 00000001800141a8     libemlrt:libemlrt.dll
 0002:000001b0       __imp_emlrtDestroyArray    00000001800141b0     libemlrt:libemlrt.dll
 0002:000001b8       __imp_emlrtCreateCharArray 00000001800141b8     libemlrt:libemlrt.dll
 0002:000001c0       __imp_emlrtCreateLogicalScalar 00000001800141c0     libemlrt:libemlrt.dll
 0002:000001c8       __imp_emlrtCreateNumericMatrix 00000001800141c8     libemlrt:libemlrt.dll
 0002:000001d0       __imp_emlrtGetCell         00000001800141d0     libemlrt:libemlrt.dll
 0002:000001d8       __imp_emlrtSetCell         00000001800141d8     libemlrt:libemlrt.dll
 0002:000001e0       __imp_emlrtCreateCellMatrix 00000001800141e0     libemlrt:libemlrt.dll
 0002:000001e8       __imp_emlrtSetFieldR2017b  00000001800141e8     libemlrt:libemlrt.dll
 0002:000001f0       __imp_emlrtGetFieldR2017b  00000001800141f0     libemlrt:libemlrt.dll
 0002:000001f8       __imp_emlrtCreateStructMatrix 00000001800141f8     libemlrt:libemlrt.dll
 0002:00000200       __imp_emlrtInitCharArrayR2013a 0000000180014200     libemlrt:libemlrt.dll
 0002:00000208       \177libemlrt_NULL_THUNK_DATA 0000000180014208     libemlrt:libemlrt.dll
 0002:00000210       __imp_mexWarnMsgTxt_800    0000000180014210     libmex:libmex.dll
 0002:00000218       __imp_mexIsLocked_800      0000000180014218     libmex:libmex.dll
 0002:00000220       __imp_mexUnlock_800        0000000180014220     libmex:libmex.dll
 0002:00000228       __imp_mexCallMATLAB_800    0000000180014228     libmex:libmex.dll
 0002:00000230       __imp_mexPrintf_800        0000000180014230     libmex:libmex.dll
 0002:00000238       \177libmex_NULL_THUNK_DATA 0000000180014238     libmex:libmex.dll
 0002:00000240       __imp_cgxertSetRuntimeInstance 0000000180014240     libmwcgxert:libmwcgxert.dll
 0002:00000248       __imp_cgxertGetRuntimeInstance 0000000180014248     libmwcgxert:libmwcgxert.dll
 0002:00000250       __imp_cgxertGetInputPortSignal 0000000180014250     libmwcgxert:libmwcgxert.dll
 0002:00000258       __imp_cgxertSetGcb         0000000180014258     libmwcgxert:libmwcgxert.dll
 0002:00000260       __imp_cgxertRestoreGcb     0000000180014260     libmwcgxert:libmwcgxert.dll
 0002:00000268       __imp_cgxertGetEMLRTCtx    0000000180014268     libmwcgxert:libmwcgxert.dll
 0002:00000270       \177libmwcgxert_NULL_THUNK_DATA 0000000180014270     libmwcgxert:libmwcgxert.dll
 0002:00000278       __imp_mxSetFieldByNumber_800 0000000180014278     libmx:libmx.dll
 0002:00000280       __imp_mxGetString_800      0000000180014280     libmx:libmx.dll
 0002:00000288       __imp_mxCreateDoubleScalar_800 0000000180014288     libmx:libmx.dll
 0002:00000290       __imp_mxCreateDoubleMatrix_800 0000000180014290     libmx:libmx.dll
 0002:00000298       __imp_mxCreateNumericMatrix_800 0000000180014298     libmx:libmx.dll
 0002:000002a0       __imp_mxSetField_800       00000001800142a0     libmx:libmx.dll
 0002:000002a8       __imp_mxGetPr_800          00000001800142a8     libmx:libmx.dll
 0002:000002b0       __imp_mxGetN_800           00000001800142b0     libmx:libmx.dll
 0002:000002b8       __imp_mxIsComplex_800      00000001800142b8     libmx:libmx.dll
 0002:000002c0       __imp_mxIsChar_800         00000001800142c0     libmx:libmx.dll
 0002:000002c8       __imp_mxIsNumeric_800      00000001800142c8     libmx:libmx.dll
 0002:000002d0       __imp_mxGetData_800        00000001800142d0     libmx:libmx.dll
 0002:000002d8       __imp_mxGetClassID_800     00000001800142d8     libmx:libmx.dll
 0002:000002e0       __imp_mxGetM_800           00000001800142e0     libmx:libmx.dll
 0002:000002e8       __imp_mxCalloc_800         00000001800142e8     libmx:libmx.dll
 0002:000002f0       __imp_mxCreateStructMatrix_800 00000001800142f0     libmx:libmx.dll
 0002:000002f8       __imp_mxCreateCellMatrix_800 00000001800142f8     libmx:libmx.dll
 0002:00000300       __imp_mxCreateString_800   0000000180014300     libmx:libmx.dll
 0002:00000308       __imp_mxSetCell_800        0000000180014308     libmx:libmx.dll
 0002:00000310       \177libmx_NULL_THUNK_DATA  0000000180014310     libmx:libmx.dll
 0002:00000318       __guard_check_icall_fptr   0000000180014318     MSVCRT:guard_support.obj
 0002:00000320       __guard_xfg_check_icall_fptr 0000000180014320     MSVCRT:guard_support.obj
 0002:00000328       __guard_dispatch_icall_fptr 0000000180014328     MSVCRT:guard_support.obj
 0002:00000330       __guard_xfg_dispatch_icall_fptr 0000000180014330     MSVCRT:guard_support.obj
 0002:00000338       __guard_xfg_table_dispatch_icall_fptr 0000000180014338     MSVCRT:guard_support.obj
 0002:00000340       __castguard_check_failure_os_handled_fptr 0000000180014340     MSVCRT:guard_support.obj
 0002:00000348       __guard_memcpy_fptr        0000000180014348     vcruntime:softmemtag.obj
 0002:00000350       __xc_a                     0000000180014350     MSVCRT:initializers.obj
 0002:00000358       __xc_z                     0000000180014358     MSVCRT:initializers.obj
 0002:00000360       __xi_a                     0000000180014360     MSVCRT:initializers.obj
 0002:00000368       __xi_z                     0000000180014368     MSVCRT:initializers.obj
 0002:00000370       __xp_a                     0000000180014370     MSVCRT:initializers.obj
 0002:00000378       __xp_z                     0000000180014378     MSVCRT:initializers.obj
 0002:00000380       __xt_a                     0000000180014380     MSVCRT:initializers.obj
 0002:00000388       __xt_z                     0000000180014388     MSVCRT:initializers.obj
 0002:00000530       DYNAMIC_DIMENSION_DEF      0000000180014530     MotorWorking_cgxe_registry.obj
 0002:00000548       __real@0000000000000000    0000000180014548     MotorWorking_cgxe_registry.obj
 0002:00000550       __real@4010000000000000    0000000180014550     MotorWorking_cgxe_registry.obj
 0002:00000558       __real@41602cbca0000000    0000000180014558     MotorWorking_cgxe_registry.obj
 0002:00000560       __real@41c0d42393000000    0000000180014560     MotorWorking_cgxe_registry.obj
 0002:00000568       __real@41d33e1a1e000000    0000000180014568     MotorWorking_cgxe_registry.obj
 0002:00000570       __real@41d3991690800000    0000000180014570     MotorWorking_cgxe_registry.obj
 0002:00000578       __real@41d7cf2582c00000    0000000180014578     MotorWorking_cgxe_registry.obj
 0002:00000580       __real@41d889b300000000    0000000180014580     MotorWorking_cgxe_registry.obj
 0002:00000588       __real@41d98cd08e800000    0000000180014588     MotorWorking_cgxe_registry.obj
 0002:00000590       __real@41dc67f553c00000    0000000180014590     MotorWorking_cgxe_registry.obj
 0002:00000598       __real@41e13401bfc00000    0000000180014598     MotorWorking_cgxe_registry.obj
 0002:000005a0       __real@41e2069ed9a00000    00000001800145a0     MotorWorking_cgxe_registry.obj
 0002:000005a8       __real@41e5b0b712600000    00000001800145a8     MotorWorking_cgxe_registry.obj
 0002:000005b0       __real@41e6510a8f000000    00000001800145b0     MotorWorking_cgxe_registry.obj
 0002:000005b8       __real@41e9da94c7a00000    00000001800145b8     MotorWorking_cgxe_registry.obj
 0002:000005c0       __real@41ec00b24ba00000    00000001800145c0     MotorWorking_cgxe_registry.obj
 0002:000005c8       __real@41ef6cc3cee00000    00000001800145c8     MotorWorking_cgxe_registry.obj
 0002:000005d0       __real@41efb888a5c00000    00000001800145d0     MotorWorking_cgxe_registry.obj
 0002:000005d8       __real@41efdd84cc400000    00000001800145d8     MotorWorking_cgxe_registry.obj
 0002:000005e0       __real@bff0000000000000    00000001800145e0     MotorWorking_cgxe_registry.obj
 0002:000005f8       _pDefaultRawDllMain        00000001800145f8     MSVCRT:dll_dllmain.obj
 0002:000005f8       _pRawDllMain               00000001800145f8     MSVCRT:dll_dllmain.obj
 0002:00000600       __xmm@ffffffffffffffffffffffffffffffff 0000000180014600     MSVCRT:utility.obj
 0002:00000610       _load_config_used          0000000180014610     MSVCRT:loadcfg.obj
 0002:00000780       __CastGuardVftablesStart   0000000180014780     MSVCRT:guard_support.obj
 0002:00000800       __CastGuardVftablesEnd     0000000180014800     MSVCRT:guard_support.obj
 0002:00000880       __volatile_metadata        0000000180014880     <linker-defined>
 0002:00000ce0       __rtc_iaa                  0000000180014ce0     MSVCRT:initsect.obj
 0002:00000ce8       __rtc_izz                  0000000180014ce8     MSVCRT:initsect.obj
 0002:00000cf0       __rtc_taa                  0000000180014cf0     MSVCRT:initsect.obj
 0002:00000cf8       __rtc_tzz                  0000000180014cf8     MSVCRT:initsect.obj
 0002:00001a1c       __IMPORT_DESCRIPTOR_libmx  0000000180015a1c     libmx:libmx.dll
 0002:00001a30       __IMPORT_DESCRIPTOR_libmex 0000000180015a30     libmex:libmex.dll
 0002:00001a44       __IMPORT_DESCRIPTOR_libemlrt 0000000180015a44     libemlrt:libemlrt.dll
 0002:00001a58       __IMPORT_DESCRIPTOR_libmwcgxert 0000000180015a58     libmwcgxert:libmwcgxert.dll
 0002:00001a6c       __IMPORT_DESCRIPTOR_KERNEL32 0000000180015a6c     kernel32:KERNEL32.dll
 0002:00001a80       __IMPORT_DESCRIPTOR_VCRUNTIME140 0000000180015a80     vcruntime:VCRUNTIME140.dll
 0002:00001a94       __IMPORT_DESCRIPTOR_api-ms-win-crt-heap-l1-1-0 0000000180015a94     ucrt:api-ms-win-crt-heap-l1-1-0.dll
 0002:00001aa8       __IMPORT_DESCRIPTOR_api-ms-win-crt-string-l1-1-0 0000000180015aa8     ucrt:api-ms-win-crt-string-l1-1-0.dll
 0002:00001abc       __IMPORT_DESCRIPTOR_api-ms-win-crt-stdio-l1-1-0 0000000180015abc     ucrt:api-ms-win-crt-stdio-l1-1-0.dll
 0002:00001ad0       __IMPORT_DESCRIPTOR_api-ms-win-crt-runtime-l1-1-0 0000000180015ad0     ucrt:api-ms-win-crt-runtime-l1-1-0.dll
 0002:00001ae4       __NULL_IMPORT_DESCRIPTOR   0000000180015ae4     libmx:libmx.dll
 0003:00001e00       DYNAMIC_DIMENSION          0000000180018e00     MotorWorking_cgxe_registry.obj
 0003:00004180       __security_cookie_complement 000000018001b180     MSVCRT:gs_cookie.obj
 0003:00004188       __security_cookie          000000018001b188     MSVCRT:gs_cookie.obj
 0003:00004190       _fltused                   000000018001b190     MSVCRT:fltused.obj
 0003:00004194       __scrt_native_dllmain_reason 000000018001b194     MSVCRT:utility.obj
 0003:00004198       __isa_available            000000018001b198     MSVCRT:cpu_disp.obj
 0003:0000419c       __isa_enabled              000000018001b19c     MSVCRT:cpu_disp.obj
 0003:000041a0       __memset_fast_string_threshold 000000018001b1a0     MSVCRT:cpu_disp.obj
 0003:000041a8       __memset_nt_threshold      000000018001b1a8     MSVCRT:cpu_disp.obj
 0003:000041b0       __scrt_ucrt_dll_is_in_use  000000018001b1b0     MSVCRT:ucrt_stubs.obj
 0003:00004780       ?__type_info_root_node@@3U__type_info_node@@A 000000018001b780     MSVCRT:tncleanup.obj
 0003:00004790       ?_OptionsStorage@?1??__local_stdio_printf_options@@9@4_KA 000000018001b790     MSVCRT:default_local_stdio_options.obj
 0003:00004798       ?_OptionsStorage@?1??__local_stdio_scanf_options@@9@4_KA 000000018001b798     MSVCRT:default_local_stdio_options.obj
 0003:000047a0       __scrt_current_native_startup_state 000000018001b7a0     MSVCRT:utility.obj
 0003:000047a8       __scrt_native_startup_lock 000000018001b7a8     MSVCRT:utility.obj
 0003:000047e8       __scrt_debugger_hook_flag  000000018001b7e8     MSVCRT:utility_desktop.obj
 0003:000047f0       __castguard_check_failure_user_handled_fptr 000000018001b7f0     MSVCRT:guard_support.obj
 0003:000047f8       __favor                    000000018001b7f8     MSVCRT:cpu_disp.obj
 0003:00004800       ?_OptionsStorage@?1??__local_stdio_printf_options@@9@9 000000018001b800     <common>
 0003:00004808       __dyn_tls_init_callback    000000018001b808     <common>

 entry point at        0001:00012050

 Static symbols

 0000:00000000       .debug$S                   0000000180000000     MotorWorking_cgxe.exp
 0000:00000000       _volmd                     0000000180000000     MotorWorking_cgxe_registry.obj
 0000:00000000       _volmd                     0000000180000000     m_bg50hRmc6UAsemHLG3AoeE.obj
 0000:00000000       _volmd                     0000000180000000     m_dYZZzNbePGHHoKucqxRynD.obj
 0000:00000000       _volmd                     0000000180000000     m_mGg5kldJFMUqqcMFYTCXk.obj
 0000:00000000       _volmd                     0000000180000000     m_vhCIMhSDxW7vJ4zd5fVmYF.obj
 0000:00000000       .debug$S                   0000000180000000     ucrt:api-ms-win-crt-heap-l1-1-0.dll
 0000:00000000       .debug$S                   0000000180000000     ucrt:api-ms-win-crt-heap-l1-1-0.dll
 0000:00000000       .debug$S                   0000000180000000     ucrt:api-ms-win-crt-heap-l1-1-0.dll
 0000:00000000       .debug$S                   0000000180000000     ucrt:api-ms-win-crt-runtime-l1-1-0.dll
 0000:00000000       .debug$S                   0000000180000000     ucrt:api-ms-win-crt-runtime-l1-1-0.dll
 0000:00000000       .debug$S                   0000000180000000     ucrt:api-ms-win-crt-runtime-l1-1-0.dll
 0000:00000000       .debug$S                   0000000180000000     ucrt:api-ms-win-crt-runtime-l1-1-0.dll
 0000:00000000       .debug$S                   0000000180000000     ucrt:api-ms-win-crt-runtime-l1-1-0.dll
 0000:00000000       .debug$S                   0000000180000000     ucrt:api-ms-win-crt-runtime-l1-1-0.dll
 0000:00000000       .debug$S                   0000000180000000     ucrt:api-ms-win-crt-runtime-l1-1-0.dll
 0000:00000000       .debug$S                   0000000180000000     ucrt:api-ms-win-crt-runtime-l1-1-0.dll
 0000:00000000       .debug$S                   0000000180000000     ucrt:api-ms-win-crt-runtime-l1-1-0.dll
 0000:00000000       .debug$S                   0000000180000000     ucrt:api-ms-win-crt-runtime-l1-1-0.dll
 0000:00000000       .debug$S                   0000000180000000     ucrt:api-ms-win-crt-runtime-l1-1-0.dll
 0000:00000000       .debug$S                   0000000180000000     ucrt:api-ms-win-crt-runtime-l1-1-0.dll
 0000:00000000       .debug$S                   0000000180000000     ucrt:api-ms-win-crt-stdio-l1-1-0.dll
 0000:00000000       .debug$S                   0000000180000000     ucrt:api-ms-win-crt-string-l1-1-0.dll
 0000:00000000       .debug$S                   0000000180000000     ucrt:api-ms-win-crt-string-l1-1-0.dll
 0000:00000000       .debug$S                   0000000180000000     kernel32:KERNEL32.dll
 0000:00000000       .debug$S                   0000000180000000     kernel32:KERNEL32.dll
 0000:00000000       .debug$S                   0000000180000000     kernel32:KERNEL32.dll
 0000:00000000       .debug$S                   0000000180000000     kernel32:KERNEL32.dll
 0000:00000000       .debug$S                   0000000180000000     kernel32:KERNEL32.dll
 0000:00000000       .debug$S                   0000000180000000     kernel32:KERNEL32.dll
 0000:00000000       .debug$S                   0000000180000000     kernel32:KERNEL32.dll
 0000:00000000       .debug$S                   0000000180000000     kernel32:KERNEL32.dll
 0000:00000000       .debug$S                   0000000180000000     kernel32:KERNEL32.dll
 0000:00000000       .debug$S                   0000000180000000     kernel32:KERNEL32.dll
 0000:00000000       .debug$S                   0000000180000000     kernel32:KERNEL32.dll
 0000:00000000       .debug$S                   0000000180000000     kernel32:KERNEL32.dll
 0000:00000000       .debug$S                   0000000180000000     kernel32:KERNEL32.dll
 0000:00000000       .debug$S                   0000000180000000     kernel32:KERNEL32.dll
 0000:00000000       .debug$S                   0000000180000000     kernel32:KERNEL32.dll
 0000:00000000       .debug$S                   0000000180000000     kernel32:KERNEL32.dll
 0000:00000000       .debug$S                   0000000180000000     kernel32:KERNEL32.dll
 0000:00000000       .debug$S                   0000000180000000     libemlrt:libemlrt.dll
 0000:00000000       .debug$S                   0000000180000000     libemlrt:libemlrt.dll
 0000:00000000       .debug$S                   0000000180000000     libemlrt:libemlrt.dll
 0000:00000000       .debug$S                   0000000180000000     libemlrt:libemlrt.dll
 0000:00000000       .debug$S                   0000000180000000     libemlrt:libemlrt.dll
 0000:00000000       .debug$S                   0000000180000000     libemlrt:libemlrt.dll
 0000:00000000       .debug$S                   0000000180000000     libemlrt:libemlrt.dll
 0000:00000000       .debug$S                   0000000180000000     libemlrt:libemlrt.dll
 0000:00000000       .debug$S                   0000000180000000     libemlrt:libemlrt.dll
 0000:00000000       .debug$S                   0000000180000000     libemlrt:libemlrt.dll
 0000:00000000       .debug$S                   0000000180000000     libemlrt:libemlrt.dll
 0000:00000000       .debug$S                   0000000180000000     libemlrt:libemlrt.dll
 0000:00000000       .debug$S                   0000000180000000     libemlrt:libemlrt.dll
 0000:00000000       .debug$S                   0000000180000000     libemlrt:libemlrt.dll
 0000:00000000       .debug$S                   0000000180000000     libemlrt:libemlrt.dll
 0000:00000000       .debug$S                   0000000180000000     libemlrt:libemlrt.dll
 0000:00000000       .debug$S                   0000000180000000     libemlrt:libemlrt.dll
 0000:00000000       .debug$S                   0000000180000000     libemlrt:libemlrt.dll
 0000:00000000       .debug$S                   0000000180000000     libmex:libmex.dll
 0000:00000000       .debug$S                   0000000180000000     libmex:libmex.dll
 0000:00000000       .debug$S                   0000000180000000     libmex:libmex.dll
 0000:00000000       .debug$S                   0000000180000000     libmex:libmex.dll
 0000:00000000       .debug$S                   0000000180000000     libmex:libmex.dll
 0000:00000000       .debug$S                   0000000180000000     libmwcgxert:libmwcgxert.dll
 0000:00000000       .debug$S                   0000000180000000     libmwcgxert:libmwcgxert.dll
 0000:00000000       .debug$S                   0000000180000000     libmwcgxert:libmwcgxert.dll
 0000:00000000       .debug$S                   0000000180000000     libmwcgxert:libmwcgxert.dll
 0000:00000000       .debug$S                   0000000180000000     libmwcgxert:libmwcgxert.dll
 0000:00000000       .debug$S                   0000000180000000     libmwcgxert:libmwcgxert.dll
 0000:00000000       .debug$S                   0000000180000000     libmx:libmx.dll
 0000:00000000       .debug$S                   0000000180000000     libmx:libmx.dll
 0000:00000000       .debug$S                   0000000180000000     libmx:libmx.dll
 0000:00000000       .debug$S                   0000000180000000     libmx:libmx.dll
 0000:00000000       .debug$S                   0000000180000000     libmx:libmx.dll
 0000:00000000       .debug$S                   0000000180000000     libmx:libmx.dll
 0000:00000000       .debug$S                   0000000180000000     libmx:libmx.dll
 0000:00000000       .debug$S                   0000000180000000     libmx:libmx.dll
 0000:00000000       .debug$S                   0000000180000000     libmx:libmx.dll
 0000:00000000       .debug$S                   0000000180000000     libmx:libmx.dll
 0000:00000000       .debug$S                   0000000180000000     libmx:libmx.dll
 0000:00000000       .debug$S                   0000000180000000     libmx:libmx.dll
 0000:00000000       .debug$S                   0000000180000000     libmx:libmx.dll
 0000:00000000       .debug$S                   0000000180000000     libmx:libmx.dll
 0000:00000000       .debug$S                   0000000180000000     libmx:libmx.dll
 0000:00000000       .debug$S                   0000000180000000     libmx:libmx.dll
 0000:00000000       .debug$S                   0000000180000000     libmx:libmx.dll
 0000:00000000       .debug$S                   0000000180000000     libmx:libmx.dll
 0000:00000000       .debug$S                   0000000180000000     libmx:libmx.dll
 0000:00000000       _volmd                     0000000180000000     MSVCRT:cpu_disp.obj
 0002:fffec000       __guard_ehcont_?dllmain_dispatch@@YAHQEAUHINSTANCE__@@KQEAX@Z 0000000180000000     MSVCRT:dll_dllmain.obj
 0002:fffec000       __guard_fids_?dllmain_dispatch@@YAHQEAUHINSTANCE__@@KQEAX@Z 0000000180000000     MSVCRT:dll_dllmain.obj
 0000:00000000       _volmd                     0000000180000000     MSVCRT:gs_report.obj
 0000:00000000       _volmd                     0000000180000000     MSVCRT:gs_report.obj
 0000:00000000       _volmd                     0000000180000000     MSVCRT:gs_report.obj
 0002:fffec000       __guard_fids__             0000000180000000     MSVCRT:guard_support.obj
 0002:fffec000       __guard_fids__             0000000180000000     MSVCRT:guard_support.obj
 0002:fffec000       __guard_fids__guard_icall_checks_enforced 0000000180000000     MSVCRT:guard_support.obj
 0000:00000000       _volmd                     0000000180000000     MSVCRT:guard_support.obj
 0000:00000000       _volmd                     0000000180000000     MSVCRT:guard_support.obj
 0000:00000000       _volmd                     0000000180000000     MSVCRT:guard_support.obj
 0000:00000000       _volmd                     0000000180000000     MSVCRT:guard_support.obj
 0000:00000000       _volmd                     0000000180000000     MSVCRT:guard_support.obj
 0000:00000000       _volmd                     0000000180000000     MSVCRT:guard_support.obj
 0000:00000000       _volmd                     0000000180000000     MSVCRT:guard_support.obj
 0000:00000000       _volmd                     0000000180000000     MSVCRT:guard_support.obj
 0000:00000000       _volmd                     0000000180000000     MSVCRT:guard_support.obj
 0000:00000000       _volmd                     0000000180000000     MSVCRT:guard_support.obj
 0002:fffec000       __guard_ehcont___scrt_is_nonwritable_in_current_image 0000000180000000     MSVCRT:utility.obj
 0000:00000000       _volmd                     0000000180000000     MSVCRT:utility.obj
 0000:00000000       _volmd                     0000000180000000     MSVCRT:utility.obj
 0000:00000000       _volmd                     0000000180000000     MSVCRT:utility.obj
 0002:fffec000       __guard_fids___scrt_set_unhandled_exception_filter 0000000180000000     MSVCRT:utility_desktop.obj
 0000:00000000       _volmd                     0000000180000000     MSVCRT:utility_desktop.obj
 0002:fffec000       __guard_fids__             0000000180000000     vcruntime:softmemtag.obj
 0000:00000000       .debug$S                   0000000180000000     vcruntime:VCRUNTIME140.dll
 0000:00000000       .debug$S                   0000000180000000     vcruntime:VCRUNTIME140.dll
 0000:00000000       .debug$S                   0000000180000000     vcruntime:VCRUNTIME140.dll
 0000:00000000       .debug$S                   0000000180000000     vcruntime:VCRUNTIME140.dll
 0000:00000000       .debug$S                   0000000180000000     vcruntime:VCRUNTIME140.dll
 0000:00000000       .debug$S                   0000000180000000     vcruntime:VCRUNTIME140.dll
 0000:00000010       _volmd                     0000000180000010     MotorWorking_cgxe_registry.obj
 0000:00000010       _volmd                     0000000180000010     m_bg50hRmc6UAsemHLG3AoeE.obj
 0000:00000010       _volmd                     0000000180000010     m_dYZZzNbePGHHoKucqxRynD.obj
 0000:00000010       _volmd                     0000000180000010     m_mGg5kldJFMUqqcMFYTCXk.obj
 0000:00000010       _volmd                     0000000180000010     m_vhCIMhSDxW7vJ4zd5fVmYF.obj
 0000:00000020       _volmd                     0000000180000020     MotorWorking_cgxe_registry.obj
 0000:00000020       _volmd                     0000000180000020     m_bg50hRmc6UAsemHLG3AoeE.obj
 0000:00000020       _volmd                     0000000180000020     m_dYZZzNbePGHHoKucqxRynD.obj
 0000:00000020       _volmd                     0000000180000020     m_mGg5kldJFMUqqcMFYTCXk.obj
 0000:00000020       _volmd                     0000000180000020     m_vhCIMhSDxW7vJ4zd5fVmYF.obj
 0000:00000030       _volmd                     0000000180000030     MotorWorking_cgxe_registry.obj
 0000:00000030       _volmd                     0000000180000030     m_bg50hRmc6UAsemHLG3AoeE.obj
 0000:00000030       _volmd                     0000000180000030     m_dYZZzNbePGHHoKucqxRynD.obj
 0000:00000030       _volmd                     0000000180000030     m_mGg5kldJFMUqqcMFYTCXk.obj
 0000:00000030       _volmd                     0000000180000030     m_vhCIMhSDxW7vJ4zd5fVmYF.obj
 0000:00000040       _volmd                     0000000180000040     MotorWorking_cgxe_registry.obj
 0000:00000040       _volmd                     0000000180000040     m_bg50hRmc6UAsemHLG3AoeE.obj
 0000:00000040       _volmd                     0000000180000040     m_dYZZzNbePGHHoKucqxRynD.obj
 0000:00000040       _volmd                     0000000180000040     m_mGg5kldJFMUqqcMFYTCXk.obj
 0000:00000040       _volmd                     0000000180000040     m_vhCIMhSDxW7vJ4zd5fVmYF.obj
 0000:00000050       _volmd                     0000000180000050     MotorWorking_cgxe_registry.obj
 0000:00000050       _volmd                     0000000180000050     m_bg50hRmc6UAsemHLG3AoeE.obj
 0000:00000050       _volmd                     0000000180000050     m_dYZZzNbePGHHoKucqxRynD.obj
 0000:00000050       _volmd                     0000000180000050     m_mGg5kldJFMUqqcMFYTCXk.obj
 0000:00000050       _volmd                     0000000180000050     m_vhCIMhSDxW7vJ4zd5fVmYF.obj
 0000:00000060       _volmd                     0000000180000060     MotorWorking_cgxe_registry.obj
 0000:00000070       _volmd                     0000000180000070     MotorWorking_cgxe_registry.obj
 0000:00000080       _volmd                     0000000180000080     MotorWorking_cgxe_registry.obj
 0000:00000090       _volmd                     0000000180000090     MotorWorking_cgxe_registry.obj
 0000:000000a0       _volmd                     00000001800000a0     MotorWorking_cgxe_registry.obj
 0000:000000b0       _volmd                     00000001800000b0     MotorWorking_cgxe_registry.obj
 0000:000000c0       _volmd                     00000001800000c0     MotorWorking_cgxe_registry.obj
 0000:000000d0       _volmd                     00000001800000d0     MotorWorking_cgxe_registry.obj
 0000:000000e0       _volmd                     00000001800000e0     MotorWorking_cgxe_registry.obj
 0001:000002d0       cgxe_mdl_start             00000001800012d0 f   m_bg50hRmc6UAsemHLG3AoeE.obj
 0001:00000360       cgxe_mdl_initialize        0000000180001360 f   m_bg50hRmc6UAsemHLG3AoeE.obj
 0001:000003e0       cgxe_mdl_outputs           00000001800013e0 f   m_bg50hRmc6UAsemHLG3AoeE.obj
 0001:00000460       cgxe_mdl_update            0000000180001460 f   m_bg50hRmc6UAsemHLG3AoeE.obj
 0001:00000470       cgxe_mdl_derivative        0000000180001470 f   m_bg50hRmc6UAsemHLG3AoeE.obj
 0001:00000480       cgxe_mdl_enable            0000000180001480 f   m_bg50hRmc6UAsemHLG3AoeE.obj
 0001:00000490       cgxe_mdl_disable           0000000180001490 f   m_bg50hRmc6UAsemHLG3AoeE.obj
 0001:000004a0       cgxe_mdl_terminate         00000001800014a0 f   m_bg50hRmc6UAsemHLG3AoeE.obj
 0001:000004f0       mw__internal__system__init__fcn 00000001800014f0 f   m_bg50hRmc6UAsemHLG3AoeE.obj
 0001:00000510       mw__internal__system__terminate__fcn 0000000180001510 f   m_bg50hRmc6UAsemHLG3AoeE.obj
 0001:00000580       mw__internal__call__setup  0000000180001580 f   m_bg50hRmc6UAsemHLG3AoeE.obj
 0001:00000950       SystemCore_checkTunablePropChange 0000000180001950 f   m_bg50hRmc6UAsemHLG3AoeE.obj
 0001:00000b50       mw__internal__call__reset  0000000180001b50 f   m_bg50hRmc6UAsemHLG3AoeE.obj
 0001:00000ec0       mw__internal__call__step   0000000180001ec0 f   m_bg50hRmc6UAsemHLG3AoeE.obj
 0001:00001340       emlrt_marshallOut          0000000180002340 f   m_bg50hRmc6UAsemHLG3AoeE.obj
 0001:00001570       cgxe_mdl_get_sim_state     0000000180002570 f   m_bg50hRmc6UAsemHLG3AoeE.obj
 0001:000015b0       emlrt_marshallIn           00000001800025b0 f   m_bg50hRmc6UAsemHLG3AoeE.obj
 0001:000016a0       b_emlrt_marshallIn         00000001800026a0 f   m_bg50hRmc6UAsemHLG3AoeE.obj
 0001:00001770       c_emlrt_marshallIn         0000000180002770 f   m_bg50hRmc6UAsemHLG3AoeE.obj
 0001:000019a0       d_emlrt_marshallIn         00000001800029a0 f   m_bg50hRmc6UAsemHLG3AoeE.obj
 0001:000019f0       e_emlrt_marshallIn         00000001800029f0 f   m_bg50hRmc6UAsemHLG3AoeE.obj
 0001:00001a40       f_emlrt_marshallIn         0000000180002a40 f   m_bg50hRmc6UAsemHLG3AoeE.obj
 0001:00001ab0       cgxe_mdl_set_sim_state     0000000180002ab0 f   m_bg50hRmc6UAsemHLG3AoeE.obj
 0001:00001b20       message                    0000000180002b20 f   m_bg50hRmc6UAsemHLG3AoeE.obj
 0001:00001bc0       getString                  0000000180002bc0 f   m_bg50hRmc6UAsemHLG3AoeE.obj
 0001:00001c30       error                      0000000180002c30 f   m_bg50hRmc6UAsemHLG3AoeE.obj
 0001:00001cc0       b_message                  0000000180002cc0 f   m_bg50hRmc6UAsemHLG3AoeE.obj
 0001:00001d30       g_emlrt_marshallIn         0000000180002d30 f   m_bg50hRmc6UAsemHLG3AoeE.obj
 0001:00001db0       h_emlrt_marshallIn         0000000180002db0 f   m_bg50hRmc6UAsemHLG3AoeE.obj
 0001:00001e20       init_simulink_io_address   0000000180002e20 f   m_bg50hRmc6UAsemHLG3AoeE.obj
 0001:00001e70       mdlOutputs_bg50hRmc6UAsemHLG3AoeE 0000000180002e70 f   m_bg50hRmc6UAsemHLG3AoeE.obj
 0001:00001eb0       mdlInitialize_bg50hRmc6UAsemHLG3AoeE 0000000180002eb0 f   m_bg50hRmc6UAsemHLG3AoeE.obj
 0001:00001ee0       mdlUpdate_bg50hRmc6UAsemHLG3AoeE 0000000180002ee0 f   m_bg50hRmc6UAsemHLG3AoeE.obj
 0001:00001f20       mdlDerivatives_bg50hRmc6UAsemHLG3AoeE 0000000180002f20 f   m_bg50hRmc6UAsemHLG3AoeE.obj
 0001:00001f50       getSimState_bg50hRmc6UAsemHLG3AoeE 0000000180002f50 f   m_bg50hRmc6UAsemHLG3AoeE.obj
 0001:00001f90       setSimState_bg50hRmc6UAsemHLG3AoeE 0000000180002f90 f   m_bg50hRmc6UAsemHLG3AoeE.obj
 0001:00001fd0       mdlTerminate_bg50hRmc6UAsemHLG3AoeE 0000000180002fd0 f   m_bg50hRmc6UAsemHLG3AoeE.obj
 0001:00002010       mdlEnable_bg50hRmc6UAsemHLG3AoeE 0000000180003010 f   m_bg50hRmc6UAsemHLG3AoeE.obj
 0001:00002040       mdlDisable_bg50hRmc6UAsemHLG3AoeE 0000000180003040 f   m_bg50hRmc6UAsemHLG3AoeE.obj
 0001:00002070       mdlStart_bg50hRmc6UAsemHLG3AoeE 0000000180003070 f   m_bg50hRmc6UAsemHLG3AoeE.obj
 0001:00002180       mdlProcessParameters_bg50hRmc6UAsemHLG3AoeE 0000000180003180 f   m_bg50hRmc6UAsemHLG3AoeE.obj
 0001:00002450       cgxe_mdl_start             0000000180003450 f   m_dYZZzNbePGHHoKucqxRynD.obj
 0001:000024e0       cgxe_mdl_initialize        00000001800034e0 f   m_dYZZzNbePGHHoKucqxRynD.obj
 0001:00002560       cgxe_mdl_outputs           0000000180003560 f   m_dYZZzNbePGHHoKucqxRynD.obj
 0001:000025e0       cgxe_mdl_update            00000001800035e0 f   m_dYZZzNbePGHHoKucqxRynD.obj
 0001:000025f0       cgxe_mdl_derivative        00000001800035f0 f   m_dYZZzNbePGHHoKucqxRynD.obj
 0001:00002600       cgxe_mdl_enable            0000000180003600 f   m_dYZZzNbePGHHoKucqxRynD.obj
 0001:00002610       cgxe_mdl_disable           0000000180003610 f   m_dYZZzNbePGHHoKucqxRynD.obj
 0001:00002620       cgxe_mdl_terminate         0000000180003620 f   m_dYZZzNbePGHHoKucqxRynD.obj
 0001:00002670       mw__internal__system__init__fcn 0000000180003670 f   m_dYZZzNbePGHHoKucqxRynD.obj
 0001:00002690       mw__internal__system__terminate__fcn 0000000180003690 f   m_dYZZzNbePGHHoKucqxRynD.obj
 0001:00002700       mw__internal__call__setup  0000000180003700 f   m_dYZZzNbePGHHoKucqxRynD.obj
 0001:00002ad0       SystemCore_checkTunablePropChange 0000000180003ad0 f   m_dYZZzNbePGHHoKucqxRynD.obj
 0001:00002cd0       mw__internal__call__reset  0000000180003cd0 f   m_dYZZzNbePGHHoKucqxRynD.obj
 0001:00003040       mw__internal__call__step   0000000180004040 f   m_dYZZzNbePGHHoKucqxRynD.obj
 0001:000034c0       emlrt_marshallOut          00000001800044c0 f   m_dYZZzNbePGHHoKucqxRynD.obj
 0001:000036f0       cgxe_mdl_get_sim_state     00000001800046f0 f   m_dYZZzNbePGHHoKucqxRynD.obj
 0001:00003730       emlrt_marshallIn           0000000180004730 f   m_dYZZzNbePGHHoKucqxRynD.obj
 0001:00003820       b_emlrt_marshallIn         0000000180004820 f   m_dYZZzNbePGHHoKucqxRynD.obj
 0001:000038f0       c_emlrt_marshallIn         00000001800048f0 f   m_dYZZzNbePGHHoKucqxRynD.obj
 0001:00003b20       d_emlrt_marshallIn         0000000180004b20 f   m_dYZZzNbePGHHoKucqxRynD.obj
 0001:00003b70       e_emlrt_marshallIn         0000000180004b70 f   m_dYZZzNbePGHHoKucqxRynD.obj
 0001:00003bc0       f_emlrt_marshallIn         0000000180004bc0 f   m_dYZZzNbePGHHoKucqxRynD.obj
 0001:00003c30       cgxe_mdl_set_sim_state     0000000180004c30 f   m_dYZZzNbePGHHoKucqxRynD.obj
 0001:00003ca0       message                    0000000180004ca0 f   m_dYZZzNbePGHHoKucqxRynD.obj
 0001:00003d40       getString                  0000000180004d40 f   m_dYZZzNbePGHHoKucqxRynD.obj
 0001:00003db0       error                      0000000180004db0 f   m_dYZZzNbePGHHoKucqxRynD.obj
 0001:00003e40       b_message                  0000000180004e40 f   m_dYZZzNbePGHHoKucqxRynD.obj
 0001:00003eb0       g_emlrt_marshallIn         0000000180004eb0 f   m_dYZZzNbePGHHoKucqxRynD.obj
 0001:00003f30       h_emlrt_marshallIn         0000000180004f30 f   m_dYZZzNbePGHHoKucqxRynD.obj
 0001:00003fa0       init_simulink_io_address   0000000180004fa0 f   m_dYZZzNbePGHHoKucqxRynD.obj
 0001:00003ff0       mdlOutputs_dYZZzNbePGHHoKucqxRynD 0000000180004ff0 f   m_dYZZzNbePGHHoKucqxRynD.obj
 0001:00004030       mdlInitialize_dYZZzNbePGHHoKucqxRynD 0000000180005030 f   m_dYZZzNbePGHHoKucqxRynD.obj
 0001:00004060       mdlUpdate_dYZZzNbePGHHoKucqxRynD 0000000180005060 f   m_dYZZzNbePGHHoKucqxRynD.obj
 0001:000040a0       mdlDerivatives_dYZZzNbePGHHoKucqxRynD 00000001800050a0 f   m_dYZZzNbePGHHoKucqxRynD.obj
 0001:000040d0       getSimState_dYZZzNbePGHHoKucqxRynD 00000001800050d0 f   m_dYZZzNbePGHHoKucqxRynD.obj
 0001:00004110       setSimState_dYZZzNbePGHHoKucqxRynD 0000000180005110 f   m_dYZZzNbePGHHoKucqxRynD.obj
 0001:00004150       mdlTerminate_dYZZzNbePGHHoKucqxRynD 0000000180005150 f   m_dYZZzNbePGHHoKucqxRynD.obj
 0001:00004190       mdlEnable_dYZZzNbePGHHoKucqxRynD 0000000180005190 f   m_dYZZzNbePGHHoKucqxRynD.obj
 0001:000041c0       mdlDisable_dYZZzNbePGHHoKucqxRynD 00000001800051c0 f   m_dYZZzNbePGHHoKucqxRynD.obj
 0001:000041f0       mdlStart_dYZZzNbePGHHoKucqxRynD 00000001800051f0 f   m_dYZZzNbePGHHoKucqxRynD.obj
 0001:00004300       mdlProcessParameters_dYZZzNbePGHHoKucqxRynD 0000000180005300 f   m_dYZZzNbePGHHoKucqxRynD.obj
 0001:000045d0       cgxe_mdl_start             00000001800055d0 f   m_mGg5kldJFMUqqcMFYTCXk.obj
 0001:00004660       cgxe_mdl_initialize        0000000180005660 f   m_mGg5kldJFMUqqcMFYTCXk.obj
 0001:000046e0       cgxe_mdl_outputs           00000001800056e0 f   m_mGg5kldJFMUqqcMFYTCXk.obj
 0001:00004760       cgxe_mdl_update            0000000180005760 f   m_mGg5kldJFMUqqcMFYTCXk.obj
 0001:00004770       cgxe_mdl_derivative        0000000180005770 f   m_mGg5kldJFMUqqcMFYTCXk.obj
 0001:00004780       cgxe_mdl_enable            0000000180005780 f   m_mGg5kldJFMUqqcMFYTCXk.obj
 0001:00004790       cgxe_mdl_disable           0000000180005790 f   m_mGg5kldJFMUqqcMFYTCXk.obj
 0001:000047a0       cgxe_mdl_terminate         00000001800057a0 f   m_mGg5kldJFMUqqcMFYTCXk.obj
 0001:000047f0       mw__internal__system__init__fcn 00000001800057f0 f   m_mGg5kldJFMUqqcMFYTCXk.obj
 0001:00004810       mw__internal__system__terminate__fcn 0000000180005810 f   m_mGg5kldJFMUqqcMFYTCXk.obj
 0001:00004880       mw__internal__call__setup  0000000180005880 f   m_mGg5kldJFMUqqcMFYTCXk.obj
 0001:00004c50       SystemCore_checkTunablePropChange 0000000180005c50 f   m_mGg5kldJFMUqqcMFYTCXk.obj
 0001:00004e50       mw__internal__call__reset  0000000180005e50 f   m_mGg5kldJFMUqqcMFYTCXk.obj
 0001:000051c0       mw__internal__call__step   00000001800061c0 f   m_mGg5kldJFMUqqcMFYTCXk.obj
 0001:00005640       emlrt_marshallOut          0000000180006640 f   m_mGg5kldJFMUqqcMFYTCXk.obj
 0001:00005870       cgxe_mdl_get_sim_state     0000000180006870 f   m_mGg5kldJFMUqqcMFYTCXk.obj
 0001:000058b0       emlrt_marshallIn           00000001800068b0 f   m_mGg5kldJFMUqqcMFYTCXk.obj
 0001:000059a0       b_emlrt_marshallIn         00000001800069a0 f   m_mGg5kldJFMUqqcMFYTCXk.obj
 0001:00005a70       c_emlrt_marshallIn         0000000180006a70 f   m_mGg5kldJFMUqqcMFYTCXk.obj
 0001:00005ca0       d_emlrt_marshallIn         0000000180006ca0 f   m_mGg5kldJFMUqqcMFYTCXk.obj
 0001:00005cf0       e_emlrt_marshallIn         0000000180006cf0 f   m_mGg5kldJFMUqqcMFYTCXk.obj
 0001:00005d40       f_emlrt_marshallIn         0000000180006d40 f   m_mGg5kldJFMUqqcMFYTCXk.obj
 0001:00005db0       cgxe_mdl_set_sim_state     0000000180006db0 f   m_mGg5kldJFMUqqcMFYTCXk.obj
 0001:00005e20       message                    0000000180006e20 f   m_mGg5kldJFMUqqcMFYTCXk.obj
 0001:00005ec0       getString                  0000000180006ec0 f   m_mGg5kldJFMUqqcMFYTCXk.obj
 0001:00005f30       error                      0000000180006f30 f   m_mGg5kldJFMUqqcMFYTCXk.obj
 0001:00005fc0       b_message                  0000000180006fc0 f   m_mGg5kldJFMUqqcMFYTCXk.obj
 0001:00006030       g_emlrt_marshallIn         0000000180007030 f   m_mGg5kldJFMUqqcMFYTCXk.obj
 0001:000060b0       h_emlrt_marshallIn         00000001800070b0 f   m_mGg5kldJFMUqqcMFYTCXk.obj
 0001:00006120       init_simulink_io_address   0000000180007120 f   m_mGg5kldJFMUqqcMFYTCXk.obj
 0001:00006170       mdlOutputs_mGg5kldJFMUqqcMFYTCXk 0000000180007170 f   m_mGg5kldJFMUqqcMFYTCXk.obj
 0001:000061b0       mdlInitialize_mGg5kldJFMUqqcMFYTCXk 00000001800071b0 f   m_mGg5kldJFMUqqcMFYTCXk.obj
 0001:000061e0       mdlUpdate_mGg5kldJFMUqqcMFYTCXk 00000001800071e0 f   m_mGg5kldJFMUqqcMFYTCXk.obj
 0001:00006220       mdlDerivatives_mGg5kldJFMUqqcMFYTCXk 0000000180007220 f   m_mGg5kldJFMUqqcMFYTCXk.obj
 0001:00006250       getSimState_mGg5kldJFMUqqcMFYTCXk 0000000180007250 f   m_mGg5kldJFMUqqcMFYTCXk.obj
 0001:00006290       setSimState_mGg5kldJFMUqqcMFYTCXk 0000000180007290 f   m_mGg5kldJFMUqqcMFYTCXk.obj
 0001:000062d0       mdlTerminate_mGg5kldJFMUqqcMFYTCXk 00000001800072d0 f   m_mGg5kldJFMUqqcMFYTCXk.obj
 0001:00006310       mdlEnable_mGg5kldJFMUqqcMFYTCXk 0000000180007310 f   m_mGg5kldJFMUqqcMFYTCXk.obj
 0001:00006340       mdlDisable_mGg5kldJFMUqqcMFYTCXk 0000000180007340 f   m_mGg5kldJFMUqqcMFYTCXk.obj
 0001:00006370       mdlStart_mGg5kldJFMUqqcMFYTCXk 0000000180007370 f   m_mGg5kldJFMUqqcMFYTCXk.obj
 0001:00006480       mdlProcessParameters_mGg5kldJFMUqqcMFYTCXk 0000000180007480 f   m_mGg5kldJFMUqqcMFYTCXk.obj
 0001:00006750       cgxe_mdl_start             0000000180007750 f   m_vhCIMhSDxW7vJ4zd5fVmYF.obj
 0001:000067e0       cgxe_mdl_initialize        00000001800077e0 f   m_vhCIMhSDxW7vJ4zd5fVmYF.obj
 0001:00006860       cgxe_mdl_outputs           0000000180007860 f   m_vhCIMhSDxW7vJ4zd5fVmYF.obj
 0001:000068e0       cgxe_mdl_update            00000001800078e0 f   m_vhCIMhSDxW7vJ4zd5fVmYF.obj
 0001:000068f0       cgxe_mdl_derivative        00000001800078f0 f   m_vhCIMhSDxW7vJ4zd5fVmYF.obj
 0001:00006900       cgxe_mdl_enable            0000000180007900 f   m_vhCIMhSDxW7vJ4zd5fVmYF.obj
 0001:00006910       cgxe_mdl_disable           0000000180007910 f   m_vhCIMhSDxW7vJ4zd5fVmYF.obj
 0001:00006920       cgxe_mdl_terminate         0000000180007920 f   m_vhCIMhSDxW7vJ4zd5fVmYF.obj
 0001:00006970       mw__internal__system__init__fcn 0000000180007970 f   m_vhCIMhSDxW7vJ4zd5fVmYF.obj
 0001:00006990       mw__internal__system__terminate__fcn 0000000180007990 f   m_vhCIMhSDxW7vJ4zd5fVmYF.obj
 0001:00006a00       mw__internal__call__setup  0000000180007a00 f   m_vhCIMhSDxW7vJ4zd5fVmYF.obj
 0001:00006dd0       SystemCore_checkTunablePropChange 0000000180007dd0 f   m_vhCIMhSDxW7vJ4zd5fVmYF.obj
 0001:00006fd0       mw__internal__call__reset  0000000180007fd0 f   m_vhCIMhSDxW7vJ4zd5fVmYF.obj
 0001:00007340       mw__internal__call__step   0000000180008340 f   m_vhCIMhSDxW7vJ4zd5fVmYF.obj
 0001:000077c0       emlrt_marshallOut          00000001800087c0 f   m_vhCIMhSDxW7vJ4zd5fVmYF.obj
 0001:000079f0       cgxe_mdl_get_sim_state     00000001800089f0 f   m_vhCIMhSDxW7vJ4zd5fVmYF.obj
 0001:00007a30       emlrt_marshallIn           0000000180008a30 f   m_vhCIMhSDxW7vJ4zd5fVmYF.obj
 0001:00007b20       b_emlrt_marshallIn         0000000180008b20 f   m_vhCIMhSDxW7vJ4zd5fVmYF.obj
 0001:00007bf0       c_emlrt_marshallIn         0000000180008bf0 f   m_vhCIMhSDxW7vJ4zd5fVmYF.obj
 0001:00007e20       d_emlrt_marshallIn         0000000180008e20 f   m_vhCIMhSDxW7vJ4zd5fVmYF.obj
 0001:00007e70       e_emlrt_marshallIn         0000000180008e70 f   m_vhCIMhSDxW7vJ4zd5fVmYF.obj
 0001:00007ec0       f_emlrt_marshallIn         0000000180008ec0 f   m_vhCIMhSDxW7vJ4zd5fVmYF.obj
 0001:00007f30       cgxe_mdl_set_sim_state     0000000180008f30 f   m_vhCIMhSDxW7vJ4zd5fVmYF.obj
 0001:00007fa0       message                    0000000180008fa0 f   m_vhCIMhSDxW7vJ4zd5fVmYF.obj
 0001:00008040       getString                  0000000180009040 f   m_vhCIMhSDxW7vJ4zd5fVmYF.obj
 0001:000080b0       error                      00000001800090b0 f   m_vhCIMhSDxW7vJ4zd5fVmYF.obj
 0001:00008140       b_message                  0000000180009140 f   m_vhCIMhSDxW7vJ4zd5fVmYF.obj
 0001:000081b0       g_emlrt_marshallIn         00000001800091b0 f   m_vhCIMhSDxW7vJ4zd5fVmYF.obj
 0001:00008230       h_emlrt_marshallIn         0000000180009230 f   m_vhCIMhSDxW7vJ4zd5fVmYF.obj
 0001:000082a0       init_simulink_io_address   00000001800092a0 f   m_vhCIMhSDxW7vJ4zd5fVmYF.obj
 0001:000082f0       mdlOutputs_vhCIMhSDxW7vJ4zd5fVmYF 00000001800092f0 f   m_vhCIMhSDxW7vJ4zd5fVmYF.obj
 0001:00008330       mdlInitialize_vhCIMhSDxW7vJ4zd5fVmYF 0000000180009330 f   m_vhCIMhSDxW7vJ4zd5fVmYF.obj
 0001:00008360       mdlUpdate_vhCIMhSDxW7vJ4zd5fVmYF 0000000180009360 f   m_vhCIMhSDxW7vJ4zd5fVmYF.obj
 0001:000083a0       mdlDerivatives_vhCIMhSDxW7vJ4zd5fVmYF 00000001800093a0 f   m_vhCIMhSDxW7vJ4zd5fVmYF.obj
 0001:000083d0       getSimState_vhCIMhSDxW7vJ4zd5fVmYF 00000001800093d0 f   m_vhCIMhSDxW7vJ4zd5fVmYF.obj
 0001:00008410       setSimState_vhCIMhSDxW7vJ4zd5fVmYF 0000000180009410 f   m_vhCIMhSDxW7vJ4zd5fVmYF.obj
 0001:00008450       mdlTerminate_vhCIMhSDxW7vJ4zd5fVmYF 0000000180009450 f   m_vhCIMhSDxW7vJ4zd5fVmYF.obj
 0001:00008490       mdlEnable_vhCIMhSDxW7vJ4zd5fVmYF 0000000180009490 f   m_vhCIMhSDxW7vJ4zd5fVmYF.obj
 0001:000084c0       mdlDisable_vhCIMhSDxW7vJ4zd5fVmYF 00000001800094c0 f   m_vhCIMhSDxW7vJ4zd5fVmYF.obj
 0001:000084f0       mdlStart_vhCIMhSDxW7vJ4zd5fVmYF 00000001800094f0 f   m_vhCIMhSDxW7vJ4zd5fVmYF.obj
 0001:00008600       mdlProcessParameters_vhCIMhSDxW7vJ4zd5fVmYF 0000000180009600 f   m_vhCIMhSDxW7vJ4zd5fVmYF.obj
 0001:0000a5cc       $LN147                     000000018000b5cc     MotorWorking_cgxe_registry.obj
 0001:0000b434       $LN22                      000000018000c434     MotorWorking_cgxe_registry.obj
 0001:0000bb34       $LN26                      000000018000cb34     MotorWorking_cgxe_registry.obj
 0001:0000c214       $LN24                      000000018000d214     MotorWorking_cgxe_registry.obj
 0001:0000cf4c       $LN30                      000000018000df4c     MotorWorking_cgxe_registry.obj
 0001:0000f930       mdlStart                   0000000180010930 f   MotorWorking_cgxe_registry.obj
 0001:0000f970       mdlInitializeConditions    0000000180010970 f   MotorWorking_cgxe_registry.obj
 0001:0000f990       mdlUpdate                  0000000180010990 f   MotorWorking_cgxe_registry.obj
 0001:0000f9c0       mdlOutputs                 00000001800109c0 f   MotorWorking_cgxe_registry.obj
 0001:0000f9f0       mdlTerminate               00000001800109f0 f   MotorWorking_cgxe_registry.obj
 0001:0000fa10       mdlInitializeSizes         0000000180010a10 f   MotorWorking_cgxe_registry.obj
 0001:0000fa20       mdlInitializeSampleTimes   0000000180010a20 f   MotorWorking_cgxe_registry.obj
 0001:0000fa30       cgxe_get_supported_modules 0000000180010a30 f   MotorWorking_cgxe_registry.obj
 0001:0000fcc0       cgxe_process_get_checksums 0000000180010cc0 f   MotorWorking_cgxe_registry.obj
 0001:00010050       cgxe_mex_unlock_call       0000000180011050 f   MotorWorking_cgxe_registry.obj
 0001:00010090       cgxe_unpack_simstruct      0000000180011090 f   MotorWorking_cgxe_registry.obj
 0001:00010130       cgxe_get_sim_state         0000000180011130 f   MotorWorking_cgxe_registry.obj
 0001:000101a0       cgxe_set_sim_state         00000001800111a0 f   MotorWorking_cgxe_registry.obj
 0001:00010220       cgxe_get_BuildInfoUpdate   0000000180011220 f   MotorWorking_cgxe_registry.obj
 0001:00010390       cgxe_get_fallback_info     0000000180011390 f   MotorWorking_cgxe_registry.obj
 0001:00010500       ProcessMexSfunctionCmdLineCall 0000000180011500 f   MotorWorking_cgxe_registry.obj
 0001:00010730       mdlZeroCrossings           0000000180011730 f   MotorWorking_cgxe_registry.obj
 0001:00010780       mdlGetTimeOfNextVarHit     0000000180011780 f   MotorWorking_cgxe_registry.obj
 0001:000107d0       _RegNumInputPortsCB        00000001800117d0 f   MotorWorking_cgxe_registry.obj
 0001:00010850       _RegNumOutputPortsCB       0000000180011850 f   MotorWorking_cgxe_registry.obj
 0001:000108d0       _CreateSimStruct           00000001800118d0 f   MotorWorking_cgxe_registry.obj
 0001:00010b00       _ProcessMexSfunctionCmdLineCall 0000000180011b00 f   MotorWorking_cgxe_registry.obj
 0001:00011490       ReportIndexOutOfBoundsError 0000000180012490 f   MotorWorking_cgxe_registry.obj
 0001:00011930       $$000000                   0000000180012930     MSVCRT:amdsecgs.obj
 0001:00011c28       capture_current_context    0000000180012c28 f   MSVCRT:gs_report.obj
 0001:00011c98       capture_previous_context   0000000180012c98 f   MSVCRT:gs_report.obj
 0001:00011d0c       ?dllmain_crt_dispatch@@YAHQEAUHINSTANCE__@@KQEAX@Z 0000000180012d0c f   MSVCRT:dll_dllmain.obj
 0001:00011d5c       ?dllmain_crt_process_attach@@YAHQEAUHINSTANCE__@@QEAX@Z 0000000180012d5c f   MSVCRT:dll_dllmain.obj
 0001:00011e74       ?dllmain_crt_process_detach@@YAH_N@Z 0000000180012e74 f   MSVCRT:dll_dllmain.obj
 0001:00011ef8       ?dllmain_dispatch@@YAHQEAUHINSTANCE__@@KQEAX@Z 0000000180012ef8 f   MSVCRT:dll_dllmain.obj
 0001:0001202c       ?dllmain_raw@@YAHQEAUHINSTANCE__@@KQEAX@Z 000000018001302c f   MSVCRT:dll_dllmain.obj
 0001:00012090       __get_entropy              0000000180013090 f   MSVCRT:gs_support.obj
 0001:00012220       ?find_pe_section@@YAPEAU_IMAGE_SECTION_HEADER@@QEAE_K@Z 0000000180013220 f   MSVCRT:utility.obj
 0001:00012274       ?is_potentially_valid_image_base@@YA_NQEAX@Z 0000000180013274 f   MSVCRT:utility.obj
 0001:000129bc       __castguard_check_failure_os_handled_wrapper 00000001800139bc f   MSVCRT:guard_support.obj
 0001:00012a14       __castguard_check_failure_user_handled_wrapper 0000000180013a14 f   MSVCRT:guard_support.obj
 0001:00012a30       __castguard_compat_check   0000000180013a30 f   MSVCRT:guard_support.obj
 0001:00012b74       __castguard_slow_path_compat_check 0000000180013b74 f   MSVCRT:guard_support.obj
 0001:00012e80       $$000000                   0000000180013e80     MSVCRT:guard_dispatch.obj
 0001:00012ea0       $$000000                   0000000180013ea0     MSVCRT:guard_xfg_dispatch.obj
 0001:00012eb6       ?fin$0@?0??dllmain_crt_process_attach@@YAHQEAUHINSTANCE__@@QEAX@Z@4HA 0000000180013eb6 f   MSVCRT:dll_dllmain.obj
 0001:00012ecd       ?fin$0@?0??dllmain_crt_process_detach@@YAH_N@Z@4HA 0000000180013ecd f   MSVCRT:dll_dllmain.obj
 0001:00012ee6       ?fin$1@?0??dllmain_crt_process_detach@@YAH_N@Z@4HA 0000000180013ee6 f   MSVCRT:dll_dllmain.obj
 0001:00012efa       ?filt$0@?0??dllmain_dispatch@@YAHQEAUHINSTANCE__@@KQEAX@Z@4HA 0000000180013efa f   MSVCRT:dll_dllmain.obj
 0001:00012f30       __scrt_is_nonwritable_in_current_image$filt$0 0000000180013f30 f   MSVCRT:utility.obj
 0002:00000390       ?iv@?1??mw__internal__call__setup@@9@9 0000000180014390     m_bg50hRmc6UAsemHLG3AoeE.obj
 0002:00000398       ?iv1@?1??mw__internal__call__setup@@9@9 0000000180014398     m_bg50hRmc6UAsemHLG3AoeE.obj
 0002:000003a0       ?iv2@?1??mw__internal__call__setup@@9@9 00000001800143a0     m_bg50hRmc6UAsemHLG3AoeE.obj
 0002:000003a8       ?iv@?1??SystemCore_checkTunablePropChange@@9@9 00000001800143a8     m_bg50hRmc6UAsemHLG3AoeE.obj
 0002:000003b0       ?iv1@?1??SystemCore_checkTunablePropChange@@9@9 00000001800143b0     m_bg50hRmc6UAsemHLG3AoeE.obj
 0002:000003b8       ?iv@?1??mw__internal__call__reset@@9@9 00000001800143b8     m_bg50hRmc6UAsemHLG3AoeE.obj
 0002:000003c0       ?iv1@?1??mw__internal__call__reset@@9@9 00000001800143c0     m_bg50hRmc6UAsemHLG3AoeE.obj
 0002:000003c8       ?iv2@?1??mw__internal__call__reset@@9@9 00000001800143c8     m_bg50hRmc6UAsemHLG3AoeE.obj
 0002:000003d0       ?iv@?1??mw__internal__call__step@@9@9 00000001800143d0     m_bg50hRmc6UAsemHLG3AoeE.obj
 0002:000003d8       ?iv1@?1??mw__internal__call__step@@9@9 00000001800143d8     m_bg50hRmc6UAsemHLG3AoeE.obj
 0002:000003e0       ?iv2@?1??mw__internal__call__step@@9@9 00000001800143e0     m_bg50hRmc6UAsemHLG3AoeE.obj
 0002:000003e8       ?dims@?1??c_emlrt_marshallIn@@9@9 00000001800143e8     m_bg50hRmc6UAsemHLG3AoeE.obj
 0002:000003ec       ?dims@?1??g_emlrt_marshallIn@@9@9 00000001800143ec     m_bg50hRmc6UAsemHLG3AoeE.obj
 0002:000003f0       ?dims@?1??h_emlrt_marshallIn@@9@9 00000001800143f0     m_bg50hRmc6UAsemHLG3AoeE.obj
 0002:000003f8       ?iv@?1??mw__internal__call__setup@@9@9 00000001800143f8     m_dYZZzNbePGHHoKucqxRynD.obj
 0002:00000400       ?iv1@?1??mw__internal__call__setup@@9@9 0000000180014400     m_dYZZzNbePGHHoKucqxRynD.obj
 0002:00000408       ?iv2@?1??mw__internal__call__setup@@9@9 0000000180014408     m_dYZZzNbePGHHoKucqxRynD.obj
 0002:00000410       ?iv@?1??SystemCore_checkTunablePropChange@@9@9 0000000180014410     m_dYZZzNbePGHHoKucqxRynD.obj
 0002:00000418       ?iv1@?1??SystemCore_checkTunablePropChange@@9@9 0000000180014418     m_dYZZzNbePGHHoKucqxRynD.obj
 0002:00000420       ?iv@?1??mw__internal__call__reset@@9@9 0000000180014420     m_dYZZzNbePGHHoKucqxRynD.obj
 0002:00000428       ?iv1@?1??mw__internal__call__reset@@9@9 0000000180014428     m_dYZZzNbePGHHoKucqxRynD.obj
 0002:00000430       ?iv2@?1??mw__internal__call__reset@@9@9 0000000180014430     m_dYZZzNbePGHHoKucqxRynD.obj
 0002:00000438       ?iv@?1??mw__internal__call__step@@9@9 0000000180014438     m_dYZZzNbePGHHoKucqxRynD.obj
 0002:00000440       ?iv1@?1??mw__internal__call__step@@9@9 0000000180014440     m_dYZZzNbePGHHoKucqxRynD.obj
 0002:00000448       ?iv2@?1??mw__internal__call__step@@9@9 0000000180014448     m_dYZZzNbePGHHoKucqxRynD.obj
 0002:00000450       ?dims@?1??c_emlrt_marshallIn@@9@9 0000000180014450     m_dYZZzNbePGHHoKucqxRynD.obj
 0002:00000454       ?dims@?1??g_emlrt_marshallIn@@9@9 0000000180014454     m_dYZZzNbePGHHoKucqxRynD.obj
 0002:00000458       ?dims@?1??h_emlrt_marshallIn@@9@9 0000000180014458     m_dYZZzNbePGHHoKucqxRynD.obj
 0002:00000460       ?iv@?1??mw__internal__call__setup@@9@9 0000000180014460     m_mGg5kldJFMUqqcMFYTCXk.obj
 0002:00000468       ?iv1@?1??mw__internal__call__setup@@9@9 0000000180014468     m_mGg5kldJFMUqqcMFYTCXk.obj
 0002:00000470       ?iv2@?1??mw__internal__call__setup@@9@9 0000000180014470     m_mGg5kldJFMUqqcMFYTCXk.obj
 0002:00000478       ?iv@?1??SystemCore_checkTunablePropChange@@9@9 0000000180014478     m_mGg5kldJFMUqqcMFYTCXk.obj
 0002:00000480       ?iv1@?1??SystemCore_checkTunablePropChange@@9@9 0000000180014480     m_mGg5kldJFMUqqcMFYTCXk.obj
 0002:00000488       ?iv@?1??mw__internal__call__reset@@9@9 0000000180014488     m_mGg5kldJFMUqqcMFYTCXk.obj
 0002:00000490       ?iv1@?1??mw__internal__call__reset@@9@9 0000000180014490     m_mGg5kldJFMUqqcMFYTCXk.obj
 0002:00000498       ?iv2@?1??mw__internal__call__reset@@9@9 0000000180014498     m_mGg5kldJFMUqqcMFYTCXk.obj
 0002:000004a0       ?iv@?1??mw__internal__call__step@@9@9 00000001800144a0     m_mGg5kldJFMUqqcMFYTCXk.obj
 0002:000004a8       ?iv1@?1??mw__internal__call__step@@9@9 00000001800144a8     m_mGg5kldJFMUqqcMFYTCXk.obj
 0002:000004b0       ?iv2@?1??mw__internal__call__step@@9@9 00000001800144b0     m_mGg5kldJFMUqqcMFYTCXk.obj
 0002:000004b8       ?dims@?1??c_emlrt_marshallIn@@9@9 00000001800144b8     m_mGg5kldJFMUqqcMFYTCXk.obj
 0002:000004bc       ?dims@?1??g_emlrt_marshallIn@@9@9 00000001800144bc     m_mGg5kldJFMUqqcMFYTCXk.obj
 0002:000004c0       ?dims@?1??h_emlrt_marshallIn@@9@9 00000001800144c0     m_mGg5kldJFMUqqcMFYTCXk.obj
 0002:000004c8       ?iv@?1??mw__internal__call__setup@@9@9 00000001800144c8     m_vhCIMhSDxW7vJ4zd5fVmYF.obj
 0002:000004d0       ?iv1@?1??mw__internal__call__setup@@9@9 00000001800144d0     m_vhCIMhSDxW7vJ4zd5fVmYF.obj
 0002:000004d8       ?iv2@?1??mw__internal__call__setup@@9@9 00000001800144d8     m_vhCIMhSDxW7vJ4zd5fVmYF.obj
 0002:000004e0       ?iv@?1??SystemCore_checkTunablePropChange@@9@9 00000001800144e0     m_vhCIMhSDxW7vJ4zd5fVmYF.obj
 0002:000004e8       ?iv1@?1??SystemCore_checkTunablePropChange@@9@9 00000001800144e8     m_vhCIMhSDxW7vJ4zd5fVmYF.obj
 0002:000004f0       ?iv@?1??mw__internal__call__reset@@9@9 00000001800144f0     m_vhCIMhSDxW7vJ4zd5fVmYF.obj
 0002:000004f8       ?iv1@?1??mw__internal__call__reset@@9@9 00000001800144f8     m_vhCIMhSDxW7vJ4zd5fVmYF.obj
 0002:00000500       ?iv2@?1??mw__internal__call__reset@@9@9 0000000180014500     m_vhCIMhSDxW7vJ4zd5fVmYF.obj
 0002:00000508       ?iv@?1??mw__internal__call__step@@9@9 0000000180014508     m_vhCIMhSDxW7vJ4zd5fVmYF.obj
 0002:00000510       ?iv1@?1??mw__internal__call__step@@9@9 0000000180014510     m_vhCIMhSDxW7vJ4zd5fVmYF.obj
 0002:00000518       ?iv2@?1??mw__internal__call__step@@9@9 0000000180014518     m_vhCIMhSDxW7vJ4zd5fVmYF.obj
 0002:00000520       ?dims@?1??c_emlrt_marshallIn@@9@9 0000000180014520     m_vhCIMhSDxW7vJ4zd5fVmYF.obj
 0002:00000524       ?dims@?1??g_emlrt_marshallIn@@9@9 0000000180014524     m_vhCIMhSDxW7vJ4zd5fVmYF.obj
 0002:00000528       ?dims@?1??h_emlrt_marshallIn@@9@9 0000000180014528     m_vhCIMhSDxW7vJ4zd5fVmYF.obj
 0002:000005e8       GS_ExceptionPointers       00000001800145e8     MSVCRT:gs_report.obj
 0002:00000d00       $unwind$cgxe_MotorWorking_method_dispatcher 0000000180014d00     MotorWorking_cgxe.obj
 0002:00000d08       $unwind$method_dispatcher_bg50hRmc6UAsemHLG3AoeE 0000000180014d08     m_bg50hRmc6UAsemHLG3AoeE.obj
 0002:00000d10       $unwind$cgxe_mdl_start     0000000180014d10     m_bg50hRmc6UAsemHLG3AoeE.obj
 0002:00000d18       $unwind$cgxe_mdl_initialize 0000000180014d18     m_bg50hRmc6UAsemHLG3AoeE.obj
 0002:00000d20       $unwind$cgxe_mdl_outputs   0000000180014d20     m_bg50hRmc6UAsemHLG3AoeE.obj
 0002:00000d28       $unwind$cgxe_mdl_terminate 0000000180014d28     m_bg50hRmc6UAsemHLG3AoeE.obj
 0002:00000d30       $unwind$mw__internal__system__terminate__fcn 0000000180014d30     m_bg50hRmc6UAsemHLG3AoeE.obj
 0002:00000d38       $unwind$mw__internal__call__setup 0000000180014d38     m_bg50hRmc6UAsemHLG3AoeE.obj
 0002:00000d48       $unwind$SystemCore_checkTunablePropChange 0000000180014d48     m_bg50hRmc6UAsemHLG3AoeE.obj
 0002:00000d58       $unwind$mw__internal__call__reset 0000000180014d58     m_bg50hRmc6UAsemHLG3AoeE.obj
 0002:00000d68       $unwind$mw__internal__call__step 0000000180014d68     m_bg50hRmc6UAsemHLG3AoeE.obj
 0002:00000d78       $unwind$emlrt_marshallOut  0000000180014d78     m_bg50hRmc6UAsemHLG3AoeE.obj
 0002:00000d80       $unwind$cgxe_mdl_get_sim_state 0000000180014d80     m_bg50hRmc6UAsemHLG3AoeE.obj
 0002:00000d88       $unwind$emlrt_marshallIn   0000000180014d88     m_bg50hRmc6UAsemHLG3AoeE.obj
 0002:00000d94       $unwind$b_emlrt_marshallIn 0000000180014d94     m_bg50hRmc6UAsemHLG3AoeE.obj
 0002:00000da8       $unwind$c_emlrt_marshallIn 0000000180014da8     m_bg50hRmc6UAsemHLG3AoeE.obj
 0002:00000dbc       $unwind$d_emlrt_marshallIn 0000000180014dbc     m_bg50hRmc6UAsemHLG3AoeE.obj
 0002:00000dc4       $unwind$e_emlrt_marshallIn 0000000180014dc4     m_bg50hRmc6UAsemHLG3AoeE.obj
 0002:00000dcc       $unwind$f_emlrt_marshallIn 0000000180014dcc     m_bg50hRmc6UAsemHLG3AoeE.obj
 0002:00000dd4       $unwind$cgxe_mdl_set_sim_state 0000000180014dd4     m_bg50hRmc6UAsemHLG3AoeE.obj
 0002:00000ddc       $unwind$message            0000000180014ddc     m_bg50hRmc6UAsemHLG3AoeE.obj
 0002:00000de4       $unwind$getString          0000000180014de4     m_bg50hRmc6UAsemHLG3AoeE.obj
 0002:00000dec       $unwind$error              0000000180014dec     m_bg50hRmc6UAsemHLG3AoeE.obj
 0002:00000df4       $unwind$b_message          0000000180014df4     m_bg50hRmc6UAsemHLG3AoeE.obj
 0002:00000dfc       $unwind$g_emlrt_marshallIn 0000000180014dfc     m_bg50hRmc6UAsemHLG3AoeE.obj
 0002:00000e04       $unwind$h_emlrt_marshallIn 0000000180014e04     m_bg50hRmc6UAsemHLG3AoeE.obj
 0002:00000e0c       $unwind$init_simulink_io_address 0000000180014e0c     m_bg50hRmc6UAsemHLG3AoeE.obj
 0002:00000e14       $unwind$mdlOutputs_bg50hRmc6UAsemHLG3AoeE 0000000180014e14     m_bg50hRmc6UAsemHLG3AoeE.obj
 0002:00000e1c       $unwind$mdlInitialize_bg50hRmc6UAsemHLG3AoeE 0000000180014e1c     m_bg50hRmc6UAsemHLG3AoeE.obj
 0002:00000e24       $unwind$mdlUpdate_bg50hRmc6UAsemHLG3AoeE 0000000180014e24     m_bg50hRmc6UAsemHLG3AoeE.obj
 0002:00000e2c       $unwind$mdlDerivatives_bg50hRmc6UAsemHLG3AoeE 0000000180014e2c     m_bg50hRmc6UAsemHLG3AoeE.obj
 0002:00000e34       $unwind$getSimState_bg50hRmc6UAsemHLG3AoeE 0000000180014e34     m_bg50hRmc6UAsemHLG3AoeE.obj
 0002:00000e3c       $unwind$setSimState_bg50hRmc6UAsemHLG3AoeE 0000000180014e3c     m_bg50hRmc6UAsemHLG3AoeE.obj
 0002:00000e44       $unwind$mdlTerminate_bg50hRmc6UAsemHLG3AoeE 0000000180014e44     m_bg50hRmc6UAsemHLG3AoeE.obj
 0002:00000e4c       $unwind$mdlEnable_bg50hRmc6UAsemHLG3AoeE 0000000180014e4c     m_bg50hRmc6UAsemHLG3AoeE.obj
 0002:00000e54       $unwind$mdlDisable_bg50hRmc6UAsemHLG3AoeE 0000000180014e54     m_bg50hRmc6UAsemHLG3AoeE.obj
 0002:00000e5c       $unwind$mdlStart_bg50hRmc6UAsemHLG3AoeE 0000000180014e5c     m_bg50hRmc6UAsemHLG3AoeE.obj
 0002:00000e64       $unwind$cgxe_bg50hRmc6UAsemHLG3AoeE_BuildInfoUpdate 0000000180014e64     m_bg50hRmc6UAsemHLG3AoeE.obj
 0002:00000e6c       $unwind$cgxe_bg50hRmc6UAsemHLG3AoeE_fallback_info 0000000180014e6c     m_bg50hRmc6UAsemHLG3AoeE.obj
 0002:00000e74       $unwind$method_dispatcher_dYZZzNbePGHHoKucqxRynD 0000000180014e74     m_dYZZzNbePGHHoKucqxRynD.obj
 0002:00000e7c       $unwind$cgxe_mdl_start     0000000180014e7c     m_dYZZzNbePGHHoKucqxRynD.obj
 0002:00000e84       $unwind$cgxe_mdl_initialize 0000000180014e84     m_dYZZzNbePGHHoKucqxRynD.obj
 0002:00000e8c       $unwind$cgxe_mdl_outputs   0000000180014e8c     m_dYZZzNbePGHHoKucqxRynD.obj
 0002:00000e94       $unwind$cgxe_mdl_terminate 0000000180014e94     m_dYZZzNbePGHHoKucqxRynD.obj
 0002:00000e9c       $unwind$mw__internal__system__terminate__fcn 0000000180014e9c     m_dYZZzNbePGHHoKucqxRynD.obj
 0002:00000ea4       $unwind$mw__internal__call__setup 0000000180014ea4     m_dYZZzNbePGHHoKucqxRynD.obj
 0002:00000eb4       $unwind$SystemCore_checkTunablePropChange 0000000180014eb4     m_dYZZzNbePGHHoKucqxRynD.obj
 0002:00000ec4       $unwind$mw__internal__call__reset 0000000180014ec4     m_dYZZzNbePGHHoKucqxRynD.obj
 0002:00000ed4       $unwind$mw__internal__call__step 0000000180014ed4     m_dYZZzNbePGHHoKucqxRynD.obj
 0002:00000ee4       $unwind$emlrt_marshallOut  0000000180014ee4     m_dYZZzNbePGHHoKucqxRynD.obj
 0002:00000eec       $unwind$cgxe_mdl_get_sim_state 0000000180014eec     m_dYZZzNbePGHHoKucqxRynD.obj
 0002:00000ef4       $unwind$emlrt_marshallIn   0000000180014ef4     m_dYZZzNbePGHHoKucqxRynD.obj
 0002:00000f00       $unwind$b_emlrt_marshallIn 0000000180014f00     m_dYZZzNbePGHHoKucqxRynD.obj
 0002:00000f14       $unwind$c_emlrt_marshallIn 0000000180014f14     m_dYZZzNbePGHHoKucqxRynD.obj
 0002:00000f28       $unwind$d_emlrt_marshallIn 0000000180014f28     m_dYZZzNbePGHHoKucqxRynD.obj
 0002:00000f30       $unwind$e_emlrt_marshallIn 0000000180014f30     m_dYZZzNbePGHHoKucqxRynD.obj
 0002:00000f38       $unwind$f_emlrt_marshallIn 0000000180014f38     m_dYZZzNbePGHHoKucqxRynD.obj
 0002:00000f40       $unwind$cgxe_mdl_set_sim_state 0000000180014f40     m_dYZZzNbePGHHoKucqxRynD.obj
 0002:00000f48       $unwind$message            0000000180014f48     m_dYZZzNbePGHHoKucqxRynD.obj
 0002:00000f50       $unwind$getString          0000000180014f50     m_dYZZzNbePGHHoKucqxRynD.obj
 0002:00000f58       $unwind$error              0000000180014f58     m_dYZZzNbePGHHoKucqxRynD.obj
 0002:00000f60       $unwind$b_message          0000000180014f60     m_dYZZzNbePGHHoKucqxRynD.obj
 0002:00000f68       $unwind$g_emlrt_marshallIn 0000000180014f68     m_dYZZzNbePGHHoKucqxRynD.obj
 0002:00000f70       $unwind$h_emlrt_marshallIn 0000000180014f70     m_dYZZzNbePGHHoKucqxRynD.obj
 0002:00000f78       $unwind$init_simulink_io_address 0000000180014f78     m_dYZZzNbePGHHoKucqxRynD.obj
 0002:00000f80       $unwind$mdlOutputs_dYZZzNbePGHHoKucqxRynD 0000000180014f80     m_dYZZzNbePGHHoKucqxRynD.obj
 0002:00000f88       $unwind$mdlInitialize_dYZZzNbePGHHoKucqxRynD 0000000180014f88     m_dYZZzNbePGHHoKucqxRynD.obj
 0002:00000f90       $unwind$mdlUpdate_dYZZzNbePGHHoKucqxRynD 0000000180014f90     m_dYZZzNbePGHHoKucqxRynD.obj
 0002:00000f98       $unwind$mdlDerivatives_dYZZzNbePGHHoKucqxRynD 0000000180014f98     m_dYZZzNbePGHHoKucqxRynD.obj
 0002:00000fa0       $unwind$getSimState_dYZZzNbePGHHoKucqxRynD 0000000180014fa0     m_dYZZzNbePGHHoKucqxRynD.obj
 0002:00000fa8       $unwind$setSimState_dYZZzNbePGHHoKucqxRynD 0000000180014fa8     m_dYZZzNbePGHHoKucqxRynD.obj
 0002:00000fb0       $unwind$mdlTerminate_dYZZzNbePGHHoKucqxRynD 0000000180014fb0     m_dYZZzNbePGHHoKucqxRynD.obj
 0002:00000fb8       $unwind$mdlEnable_dYZZzNbePGHHoKucqxRynD 0000000180014fb8     m_dYZZzNbePGHHoKucqxRynD.obj
 0002:00000fc0       $unwind$mdlDisable_dYZZzNbePGHHoKucqxRynD 0000000180014fc0     m_dYZZzNbePGHHoKucqxRynD.obj
 0002:00000fc8       $unwind$mdlStart_dYZZzNbePGHHoKucqxRynD 0000000180014fc8     m_dYZZzNbePGHHoKucqxRynD.obj
 0002:00000fd0       $unwind$cgxe_dYZZzNbePGHHoKucqxRynD_BuildInfoUpdate 0000000180014fd0     m_dYZZzNbePGHHoKucqxRynD.obj
 0002:00000fd8       $unwind$cgxe_dYZZzNbePGHHoKucqxRynD_fallback_info 0000000180014fd8     m_dYZZzNbePGHHoKucqxRynD.obj
 0002:00000fe0       $unwind$method_dispatcher_mGg5kldJFMUqqcMFYTCXk 0000000180014fe0     m_mGg5kldJFMUqqcMFYTCXk.obj
 0002:00000fe8       $unwind$cgxe_mdl_start     0000000180014fe8     m_mGg5kldJFMUqqcMFYTCXk.obj
 0002:00000ff0       $unwind$cgxe_mdl_initialize 0000000180014ff0     m_mGg5kldJFMUqqcMFYTCXk.obj
 0002:00000ff8       $unwind$cgxe_mdl_outputs   0000000180014ff8     m_mGg5kldJFMUqqcMFYTCXk.obj
 0002:00001000       $unwind$cgxe_mdl_terminate 0000000180015000     m_mGg5kldJFMUqqcMFYTCXk.obj
 0002:00001008       $unwind$mw__internal__system__terminate__fcn 0000000180015008     m_mGg5kldJFMUqqcMFYTCXk.obj
 0002:00001010       $unwind$mw__internal__call__setup 0000000180015010     m_mGg5kldJFMUqqcMFYTCXk.obj
 0002:00001020       $unwind$SystemCore_checkTunablePropChange 0000000180015020     m_mGg5kldJFMUqqcMFYTCXk.obj
 0002:00001030       $unwind$mw__internal__call__reset 0000000180015030     m_mGg5kldJFMUqqcMFYTCXk.obj
 0002:00001040       $unwind$mw__internal__call__step 0000000180015040     m_mGg5kldJFMUqqcMFYTCXk.obj
 0002:00001050       $unwind$emlrt_marshallOut  0000000180015050     m_mGg5kldJFMUqqcMFYTCXk.obj
 0002:00001058       $unwind$cgxe_mdl_get_sim_state 0000000180015058     m_mGg5kldJFMUqqcMFYTCXk.obj
 0002:00001060       $unwind$emlrt_marshallIn   0000000180015060     m_mGg5kldJFMUqqcMFYTCXk.obj
 0002:0000106c       $unwind$b_emlrt_marshallIn 000000018001506c     m_mGg5kldJFMUqqcMFYTCXk.obj
 0002:00001080       $unwind$c_emlrt_marshallIn 0000000180015080     m_mGg5kldJFMUqqcMFYTCXk.obj
 0002:00001094       $unwind$d_emlrt_marshallIn 0000000180015094     m_mGg5kldJFMUqqcMFYTCXk.obj
 0002:0000109c       $unwind$e_emlrt_marshallIn 000000018001509c     m_mGg5kldJFMUqqcMFYTCXk.obj
 0002:000010a4       $unwind$f_emlrt_marshallIn 00000001800150a4     m_mGg5kldJFMUqqcMFYTCXk.obj
 0002:000010ac       $unwind$cgxe_mdl_set_sim_state 00000001800150ac     m_mGg5kldJFMUqqcMFYTCXk.obj
 0002:000010b4       $unwind$message            00000001800150b4     m_mGg5kldJFMUqqcMFYTCXk.obj
 0002:000010bc       $unwind$getString          00000001800150bc     m_mGg5kldJFMUqqcMFYTCXk.obj
 0002:000010c4       $unwind$error              00000001800150c4     m_mGg5kldJFMUqqcMFYTCXk.obj
 0002:000010cc       $unwind$b_message          00000001800150cc     m_mGg5kldJFMUqqcMFYTCXk.obj
 0002:000010d4       $unwind$g_emlrt_marshallIn 00000001800150d4     m_mGg5kldJFMUqqcMFYTCXk.obj
 0002:000010dc       $unwind$h_emlrt_marshallIn 00000001800150dc     m_mGg5kldJFMUqqcMFYTCXk.obj
 0002:000010e4       $unwind$init_simulink_io_address 00000001800150e4     m_mGg5kldJFMUqqcMFYTCXk.obj
 0002:000010ec       $unwind$mdlOutputs_mGg5kldJFMUqqcMFYTCXk 00000001800150ec     m_mGg5kldJFMUqqcMFYTCXk.obj
 0002:000010f4       $unwind$mdlInitialize_mGg5kldJFMUqqcMFYTCXk 00000001800150f4     m_mGg5kldJFMUqqcMFYTCXk.obj
 0002:000010fc       $unwind$mdlUpdate_mGg5kldJFMUqqcMFYTCXk 00000001800150fc     m_mGg5kldJFMUqqcMFYTCXk.obj
 0002:00001104       $unwind$mdlDerivatives_mGg5kldJFMUqqcMFYTCXk 0000000180015104     m_mGg5kldJFMUqqcMFYTCXk.obj
 0002:0000110c       $unwind$getSimState_mGg5kldJFMUqqcMFYTCXk 000000018001510c     m_mGg5kldJFMUqqcMFYTCXk.obj
 0002:00001114       $unwind$setSimState_mGg5kldJFMUqqcMFYTCXk 0000000180015114     m_mGg5kldJFMUqqcMFYTCXk.obj
 0002:0000111c       $unwind$mdlTerminate_mGg5kldJFMUqqcMFYTCXk 000000018001511c     m_mGg5kldJFMUqqcMFYTCXk.obj
 0002:00001124       $unwind$mdlEnable_mGg5kldJFMUqqcMFYTCXk 0000000180015124     m_mGg5kldJFMUqqcMFYTCXk.obj
 0002:0000112c       $unwind$mdlDisable_mGg5kldJFMUqqcMFYTCXk 000000018001512c     m_mGg5kldJFMUqqcMFYTCXk.obj
 0002:00001134       $unwind$mdlStart_mGg5kldJFMUqqcMFYTCXk 0000000180015134     m_mGg5kldJFMUqqcMFYTCXk.obj
 0002:0000113c       $unwind$cgxe_mGg5kldJFMUqqcMFYTCXk_BuildInfoUpdate 000000018001513c     m_mGg5kldJFMUqqcMFYTCXk.obj
 0002:00001144       $unwind$cgxe_mGg5kldJFMUqqcMFYTCXk_fallback_info 0000000180015144     m_mGg5kldJFMUqqcMFYTCXk.obj
 0002:0000114c       $unwind$method_dispatcher_vhCIMhSDxW7vJ4zd5fVmYF 000000018001514c     m_vhCIMhSDxW7vJ4zd5fVmYF.obj
 0002:00001154       $unwind$cgxe_mdl_start     0000000180015154     m_vhCIMhSDxW7vJ4zd5fVmYF.obj
 0002:0000115c       $unwind$cgxe_mdl_initialize 000000018001515c     m_vhCIMhSDxW7vJ4zd5fVmYF.obj
 0002:00001164       $unwind$cgxe_mdl_outputs   0000000180015164     m_vhCIMhSDxW7vJ4zd5fVmYF.obj
 0002:0000116c       $unwind$cgxe_mdl_terminate 000000018001516c     m_vhCIMhSDxW7vJ4zd5fVmYF.obj
 0002:00001174       $unwind$mw__internal__system__terminate__fcn 0000000180015174     m_vhCIMhSDxW7vJ4zd5fVmYF.obj
 0002:0000117c       $unwind$mw__internal__call__setup 000000018001517c     m_vhCIMhSDxW7vJ4zd5fVmYF.obj
 0002:0000118c       $unwind$SystemCore_checkTunablePropChange 000000018001518c     m_vhCIMhSDxW7vJ4zd5fVmYF.obj
 0002:0000119c       $unwind$mw__internal__call__reset 000000018001519c     m_vhCIMhSDxW7vJ4zd5fVmYF.obj
 0002:000011ac       $unwind$mw__internal__call__step 00000001800151ac     m_vhCIMhSDxW7vJ4zd5fVmYF.obj
 0002:000011bc       $unwind$emlrt_marshallOut  00000001800151bc     m_vhCIMhSDxW7vJ4zd5fVmYF.obj
 0002:000011c4       $unwind$cgxe_mdl_get_sim_state 00000001800151c4     m_vhCIMhSDxW7vJ4zd5fVmYF.obj
 0002:000011cc       $unwind$emlrt_marshallIn   00000001800151cc     m_vhCIMhSDxW7vJ4zd5fVmYF.obj
 0002:000011d8       $unwind$b_emlrt_marshallIn 00000001800151d8     m_vhCIMhSDxW7vJ4zd5fVmYF.obj
 0002:000011ec       $unwind$c_emlrt_marshallIn 00000001800151ec     m_vhCIMhSDxW7vJ4zd5fVmYF.obj
 0002:00001200       $unwind$d_emlrt_marshallIn 0000000180015200     m_vhCIMhSDxW7vJ4zd5fVmYF.obj
 0002:00001208       $unwind$e_emlrt_marshallIn 0000000180015208     m_vhCIMhSDxW7vJ4zd5fVmYF.obj
 0002:00001210       $unwind$f_emlrt_marshallIn 0000000180015210     m_vhCIMhSDxW7vJ4zd5fVmYF.obj
 0002:00001218       $unwind$cgxe_mdl_set_sim_state 0000000180015218     m_vhCIMhSDxW7vJ4zd5fVmYF.obj
 0002:00001220       $unwind$message            0000000180015220     m_vhCIMhSDxW7vJ4zd5fVmYF.obj
 0002:00001228       $unwind$getString          0000000180015228     m_vhCIMhSDxW7vJ4zd5fVmYF.obj
 0002:00001230       $unwind$error              0000000180015230     m_vhCIMhSDxW7vJ4zd5fVmYF.obj
 0002:00001238       $unwind$b_message          0000000180015238     m_vhCIMhSDxW7vJ4zd5fVmYF.obj
 0002:00001240       $unwind$g_emlrt_marshallIn 0000000180015240     m_vhCIMhSDxW7vJ4zd5fVmYF.obj
 0002:00001248       $unwind$h_emlrt_marshallIn 0000000180015248     m_vhCIMhSDxW7vJ4zd5fVmYF.obj
 0002:00001250       $unwind$init_simulink_io_address 0000000180015250     m_vhCIMhSDxW7vJ4zd5fVmYF.obj
 0002:00001258       $unwind$mdlOutputs_vhCIMhSDxW7vJ4zd5fVmYF 0000000180015258     m_vhCIMhSDxW7vJ4zd5fVmYF.obj
 0002:00001260       $unwind$mdlInitialize_vhCIMhSDxW7vJ4zd5fVmYF 0000000180015260     m_vhCIMhSDxW7vJ4zd5fVmYF.obj
 0002:00001268       $unwind$mdlUpdate_vhCIMhSDxW7vJ4zd5fVmYF 0000000180015268     m_vhCIMhSDxW7vJ4zd5fVmYF.obj
 0002:00001270       $unwind$mdlDerivatives_vhCIMhSDxW7vJ4zd5fVmYF 0000000180015270     m_vhCIMhSDxW7vJ4zd5fVmYF.obj
 0002:00001278       $unwind$getSimState_vhCIMhSDxW7vJ4zd5fVmYF 0000000180015278     m_vhCIMhSDxW7vJ4zd5fVmYF.obj
 0002:00001280       $unwind$setSimState_vhCIMhSDxW7vJ4zd5fVmYF 0000000180015280     m_vhCIMhSDxW7vJ4zd5fVmYF.obj
 0002:00001288       $unwind$mdlTerminate_vhCIMhSDxW7vJ4zd5fVmYF 0000000180015288     m_vhCIMhSDxW7vJ4zd5fVmYF.obj
 0002:00001290       $unwind$mdlEnable_vhCIMhSDxW7vJ4zd5fVmYF 0000000180015290     m_vhCIMhSDxW7vJ4zd5fVmYF.obj
 0002:00001298       $unwind$mdlDisable_vhCIMhSDxW7vJ4zd5fVmYF 0000000180015298     m_vhCIMhSDxW7vJ4zd5fVmYF.obj
 0002:000012a0       $unwind$mdlStart_vhCIMhSDxW7vJ4zd5fVmYF 00000001800152a0     m_vhCIMhSDxW7vJ4zd5fVmYF.obj
 0002:000012a8       $unwind$cgxe_vhCIMhSDxW7vJ4zd5fVmYF_BuildInfoUpdate 00000001800152a8     m_vhCIMhSDxW7vJ4zd5fVmYF.obj
 0002:000012b0       $unwind$cgxe_vhCIMhSDxW7vJ4zd5fVmYF_fallback_info 00000001800152b0     m_vhCIMhSDxW7vJ4zd5fVmYF.obj
 0002:000012b8       $unwind$_vsnprintf_l       00000001800152b8     MotorWorking_cgxe_registry.obj
 0002:000012c0       $unwind$_vsprintf_l        00000001800152c0     MotorWorking_cgxe_registry.obj
 0002:000012c8       $unwind$sprintf            00000001800152c8     MotorWorking_cgxe_registry.obj
 0002:000012d0       $unwind$mexFunction        00000001800152d0     MotorWorking_cgxe_registry.obj
 0002:000012e0       $unwind$_ssSetInputPortDirectFeedThroughFcn 00000001800152e0     MotorWorking_cgxe_registry.obj
 0002:000012f0       $unwind$_ssSetRWorkValueFcn 00000001800152f0     MotorWorking_cgxe_registry.obj
 0002:000012f8       $unwind$_ssGetRWorkValueFcn 00000001800152f8     MotorWorking_cgxe_registry.obj
 0002:00001300       $unwind$_ssSetIWorkValueFcn 0000000180015300     MotorWorking_cgxe_registry.obj
 0002:00001308       $unwind$_ssGetIWorkValueFcn 0000000180015308     MotorWorking_cgxe_registry.obj
 0002:00001310       $unwind$_ssSetPWorkValueFcn 0000000180015310     MotorWorking_cgxe_registry.obj
 0002:00001318       $unwind$_ssGetPWorkValueFcn 0000000180015318     MotorWorking_cgxe_registry.obj
 0002:00001320       $unwind$_ssGetInputPortSignalFcn 0000000180015320     MotorWorking_cgxe_registry.obj
 0002:00001330       $unwind$_ssGetInputPortBufferDstPortFcn 0000000180015330     MotorWorking_cgxe_registry.obj
 0002:00001338       $unwind$_ssGetInputPortSignalPtrsFcn 0000000180015338     MotorWorking_cgxe_registry.obj
 0002:00001348       $unwind$ssGetParameterTuningCompliance 0000000180015348     MotorWorking_cgxe_registry.obj
 0002:00001350       $unwind$_ssReadInputStringFcn 0000000180015350     MotorWorking_cgxe_registry.obj
 0002:00001358       $unwind$ssGetDTypeIdFromMxArray 0000000180015358     MotorWorking_cgxe_registry.obj
 0002:00001360       $unwind$ssWriteRTWMx2dMatParam 0000000180015360     MotorWorking_cgxe_registry.obj
 0002:00001368       $unwind$ssWriteRTWMxVectParam 0000000180015368     MotorWorking_cgxe_registry.obj
 0002:00001370       $unwind$ssWriteRTWParameters 0000000180015370     MotorWorking_cgxe_registry.obj
 0002:00001378       $unwind$ssWriteRTWParamSettings 0000000180015378     MotorWorking_cgxe_registry.obj
 0002:00001380       $unwind$ssWriteRTWStr      0000000180015380     MotorWorking_cgxe_registry.obj
 0002:00001388       $unwind$ssWriteRTWWorkVect 0000000180015388     MotorWorking_cgxe_registry.obj
 0002:0000139c       $unwind$ssWarning          000000018001539c     MotorWorking_cgxe_registry.obj
 0002:000013b0       $unwind$ssGetRootSS        00000001800153b0     MotorWorking_cgxe_registry.obj
 0002:000013b8       $unwind$ssGetParentSS      00000001800153b8     MotorWorking_cgxe_registry.obj
 0002:000013c0       $unwind$ssWriteRTWNameValuePair 00000001800153c0     MotorWorking_cgxe_registry.obj
 0002:000013c8       $unwind$_ssSetInputPortMatrixDimensions 00000001800153c8     MotorWorking_cgxe_registry.obj
 0002:000013d4       $unwind$_ssSetOutputPortMatrixDimensions 00000001800153d4     MotorWorking_cgxe_registry.obj
 0002:000013e0       $unwind$_ssSetInputPortVectorDimension 00000001800153e0     MotorWorking_cgxe_registry.obj
 0002:000013ec       $unwind$_ssSetOutputPortVectorDimension 00000001800153ec     MotorWorking_cgxe_registry.obj
 0002:000013f8       $unwind$ssIsRunTimeParamTunable 00000001800153f8     MotorWorking_cgxe_registry.obj
 0002:00001400       $unwind$ssGetSFuncBlockHandle 0000000180015400     MotorWorking_cgxe_registry.obj
 0002:00001408       $unwind$_ssGetCallSystemNumFcnCallDestinations 0000000180015408     MotorWorking_cgxe_registry.obj
 0002:00001410       $unwind$_ssGetCurrentInputPortWidth 0000000180015410     MotorWorking_cgxe_registry.obj
 0002:00001418       $unwind$_ssGetCurrentOutputPortWidth 0000000180015418     MotorWorking_cgxe_registry.obj
 0002:00001420       $unwind$ssGetIsZeroCrossControlDisabled 0000000180015420     MotorWorking_cgxe_registry.obj
 0002:00001428       $unwind$ssSetIsInputPortUsedForContZcSignal 0000000180015428     MotorWorking_cgxe_registry.obj
 0002:00001430       $unwind$ssSetZcSignalIsZcElementDisc 0000000180015430     MotorWorking_cgxe_registry.obj
 0002:00001440       $unwind$ssSetZcSignalName  0000000180015440     MotorWorking_cgxe_registry.obj
 0002:00001448       $unwind$ssSetZcSignalWidth 0000000180015448     MotorWorking_cgxe_registry.obj
 0002:00001450       $unwind$ssSetZcSignalZcEventType 0000000180015450     MotorWorking_cgxe_registry.obj
 0002:00001458       $unwind$ssSetZcSignalType  0000000180015458     MotorWorking_cgxe_registry.obj
 0002:00001460       $unwind$ssSetZcSignalZcTol 0000000180015460     MotorWorking_cgxe_registry.obj
 0002:00001468       $unwind$ssSetZcSignalNeedsEventNotification 0000000180015468     MotorWorking_cgxe_registry.obj
 0002:00001470       $unwind$ssCreateAndAddZcSignalInfo 0000000180015470     MotorWorking_cgxe_registry.obj
 0002:00001478       $unwind$ssCloneAndAddZcSignalInfo 0000000180015478     MotorWorking_cgxe_registry.obj
 0002:00001480       $unwind$ssGetNumZcSignals  0000000180015480     MotorWorking_cgxe_registry.obj
 0002:00001488       $unwind$ssGetZcSignalVector 0000000180015488     MotorWorking_cgxe_registry.obj
 0002:00001490       $unwind$ssGetZcSignalName  0000000180015490     MotorWorking_cgxe_registry.obj
 0002:00001498       $unwind$ssGetZcSignalWidth 0000000180015498     MotorWorking_cgxe_registry.obj
 0002:000014a0       $unwind$ssGetZcSignalZcEventType 00000001800154a0     MotorWorking_cgxe_registry.obj
 0002:000014a8       $unwind$ssGetZcSignalZcEvents 00000001800154a8     MotorWorking_cgxe_registry.obj
 0002:000014b0       $unwind$ssGetZcSignalType  00000001800154b0     MotorWorking_cgxe_registry.obj
 0002:000014b8       $unwind$ssGetZcSignalZcTol 00000001800154b8     MotorWorking_cgxe_registry.obj
 0002:000014c0       $unwind$ssGetZcSignalNeedsEventNotification 00000001800154c0     MotorWorking_cgxe_registry.obj
 0002:000014c8       $unwind$ssGetZcSignalIsZcElementDisc 00000001800154c8     MotorWorking_cgxe_registry.obj
 0002:000014d8       $unwind$ssGetIsInputPortElementContinuous 00000001800154d8     MotorWorking_cgxe_registry.obj
 0002:000014e8       $unwind$_ssGetAbsTol       00000001800154e8     MotorWorking_cgxe_registry.obj
 0002:000014f0       $unwind$_ssSetInputPortReusableFcn 00000001800154f0     MotorWorking_cgxe_registry.obj
 0002:000014f8       $unwind$_ssSetOutputPortReusableFcn 00000001800154f8     MotorWorking_cgxe_registry.obj
 0002:00001500       $unwind$_ssSetSymbolicDimsSupport 0000000180015500     MotorWorking_cgxe_registry.obj
 0002:00001508       $unwind$_ssRegisterSymbolicDimsExpr 0000000180015508     MotorWorking_cgxe_registry.obj
 0002:00001510       $unwind$_ssRegisterSymbolicDimsMATLABExpr 0000000180015510     MotorWorking_cgxe_registry.obj
 0002:00001518       $unwind$_ssRegisterSymbolicDims 0000000180015518     MotorWorking_cgxe_registry.obj
 0002:00001520       $unwind$_ssRegisterSymbolicDimsString 0000000180015520     MotorWorking_cgxe_registry.obj
 0002:00001528       $unwind$_ssRegisterSymbolicDimsIntValue 0000000180015528     MotorWorking_cgxe_registry.obj
 0002:00001530       $unwind$_ssRegisterSymbolicEqualRelation 0000000180015530     MotorWorking_cgxe_registry.obj
 0002:00001538       $unwind$_ssRegisterSymbolicEqualValue 0000000180015538     MotorWorking_cgxe_registry.obj
 0002:00001540       $unwind$_ssAmendLeadingSymbolicDims 0000000180015540     MotorWorking_cgxe_registry.obj
 0002:00001548       $unwind$_ssAmendTrailingSymbolicDims 0000000180015548     MotorWorking_cgxe_registry.obj
 0002:00001550       $unwind$_ssRegisterSymbolicDimsPlus 0000000180015550     MotorWorking_cgxe_registry.obj
 0002:00001558       $unwind$_ssRegisterSymbolicDimsMinus 0000000180015558     MotorWorking_cgxe_registry.obj
 0002:00001560       $unwind$_ssRegisterSymbolicDimsMultiply 0000000180015560     MotorWorking_cgxe_registry.obj
 0002:00001568       $unwind$_ssRegisterSymbolicDimsDivide 0000000180015568     MotorWorking_cgxe_registry.obj
 0002:00001570       $unwind$_ssGetNumSymbolicDims 0000000180015570     MotorWorking_cgxe_registry.obj
 0002:00001578       $unwind$_ssGetSymbolicDim  0000000180015578     MotorWorking_cgxe_registry.obj
 0002:00001580       $unwind$_ssSetInputPortSymbolicDimsId 0000000180015580     MotorWorking_cgxe_registry.obj
 0002:00001588       $unwind$_ssGetCompInputPortSymbolicDimsId 0000000180015588     MotorWorking_cgxe_registry.obj
 0002:00001590       $unwind$_ssSetCompInputPortSymbolicDimsId 0000000180015590     MotorWorking_cgxe_registry.obj
 0002:00001598       $unwind$_ssSetOutputPortSymbolicDimsId 0000000180015598     MotorWorking_cgxe_registry.obj
 0002:000015a0       $unwind$_ssGetCompOutputPortSymbolicDimsId 00000001800155a0     MotorWorking_cgxe_registry.obj
 0002:000015a8       $unwind$_ssSetCompOutputPortSymbolicDimsId 00000001800155a8     MotorWorking_cgxe_registry.obj
 0002:000015b0       $unwind$_ssGetDWorkSymbolicDimsId 00000001800155b0     MotorWorking_cgxe_registry.obj
 0002:000015b8       $unwind$_ssSetDWorkSymbolicDimsId 00000001800155b8     MotorWorking_cgxe_registry.obj
 0002:000015c0       $unwind$_ssGetCompDWorkSymbolicDimsId 00000001800155c0     MotorWorking_cgxe_registry.obj
 0002:000015c8       $unwind$_ssSetCompDWorkSymbolicDimsId 00000001800155c8     MotorWorking_cgxe_registry.obj
 0002:000015d0       $unwind$_ssCreateSLCGStringBuffer 00000001800155d0     MotorWorking_cgxe_registry.obj
 0002:000015d8       $unwind$_ssAddToSLCGStringBuffer 00000001800155d8     MotorWorking_cgxe_registry.obj
 0002:000015e0       $unwind$_ssGetPointerContainedData 00000001800155e0     MotorWorking_cgxe_registry.obj
 0002:000015e8       $unwind$_ssGetPointerContainedDataWidth 00000001800155e8     MotorWorking_cgxe_registry.obj
 0002:000015f0       $unwind$_ssRegisterDynamicArrayDataTypeFcn 00000001800155f0     MotorWorking_cgxe_registry.obj
 0002:000015f8       $unwind$_ssGetDynamicArrayContainedDataCurrentWidthFcn 00000001800155f8     MotorWorking_cgxe_registry.obj
 0002:00001600       $unwind$_ssGetDynamicArrayContainedDataFcn 0000000180015600     MotorWorking_cgxe_registry.obj
 0002:00001608       $unwind$_ssGetInputPortDynamicArrayDataFcn 0000000180015608     MotorWorking_cgxe_registry.obj
 0002:00001610       $unwind$_ssGetOutputPortDynamicArrayDataFcn 0000000180015610     MotorWorking_cgxe_registry.obj
 0002:00001618       $unwind$_ssGetInputPortDynamicArrayContainedDataFcn 0000000180015618     MotorWorking_cgxe_registry.obj
 0002:00001620       $unwind$_ssGetOutputPortDynamicArrayContainedDataFcn 0000000180015620     MotorWorking_cgxe_registry.obj
 0002:00001628       $unwind$_ssGetDynamicArrayDWorkContainedDataFcn 0000000180015628     MotorWorking_cgxe_registry.obj
 0002:00001630       $unwind$mdlStart           0000000180015630     MotorWorking_cgxe_registry.obj
 0002:00001638       $unwind$mdlInitializeConditions 0000000180015638     MotorWorking_cgxe_registry.obj
 0002:00001640       $unwind$mdlUpdate          0000000180015640     MotorWorking_cgxe_registry.obj
 0002:00001648       $unwind$mdlOutputs         0000000180015648     MotorWorking_cgxe_registry.obj
 0002:00001650       $unwind$mdlTerminate       0000000180015650     MotorWorking_cgxe_registry.obj
 0002:00001658       $unwind$cgxe_get_supported_modules 0000000180015658     MotorWorking_cgxe_registry.obj
 0002:00001660       $unwind$cgxe_process_get_checksums 0000000180015660     MotorWorking_cgxe_registry.obj
 0002:00001670       $unwind$cgxe_mex_unlock_call 0000000180015670     MotorWorking_cgxe_registry.obj
 0002:00001678       $unwind$cgxe_unpack_simstruct 0000000180015678     MotorWorking_cgxe_registry.obj
 0002:00001680       $unwind$cgxe_get_sim_state 0000000180015680     MotorWorking_cgxe_registry.obj
 0002:00001688       $unwind$cgxe_set_sim_state 0000000180015688     MotorWorking_cgxe_registry.obj
 0002:00001690       $unwind$cgxe_get_BuildInfoUpdate 0000000180015690     MotorWorking_cgxe_registry.obj
 0002:000016a0       $unwind$cgxe_get_fallback_info 00000001800156a0     MotorWorking_cgxe_registry.obj
 0002:000016b0       $unwind$ProcessMexSfunctionCmdLineCall 00000001800156b0     MotorWorking_cgxe_registry.obj
 0002:000016c0       $unwind$_RegNumInputPortsCB 00000001800156c0     MotorWorking_cgxe_registry.obj
 0002:000016c8       $unwind$_RegNumOutputPortsCB 00000001800156c8     MotorWorking_cgxe_registry.obj
 0002:000016d0       $unwind$_CreateSimStruct   00000001800156d0     MotorWorking_cgxe_registry.obj
 0002:000016d8       $unwind$_ProcessMexSfunctionCmdLineCall 00000001800156d8     MotorWorking_cgxe_registry.obj
 0002:000016e8       $unwind$ReportIndexOutOfBoundsError 00000001800156e8     MotorWorking_cgxe_registry.obj
 0002:000016f8       $unwind$__GSHandlerCheckCommon 00000001800156f8     MSVCRT:gshandler.obj
 0002:00001700       $unwind$__GSHandlerCheck   0000000180015700     MSVCRT:gshandler.obj
 0002:00001708       $xdatasym                  0000000180015708     MSVCRT:amdsecgs.obj
 0002:0000170c       $unwind$__report_securityfailure 000000018001570c     MSVCRT:gs_report.obj
 0002:00001714       $unwind$__report_securityfailureEx 0000000180015714     MSVCRT:gs_report.obj
 0002:0000171c       $unwind$__report_rangecheckfailure 000000018001571c     MSVCRT:gs_report.obj
 0002:00001724       $unwind$__report_gsfailure 0000000180015724     MSVCRT:gs_report.obj
 0002:0000172c       $unwind$capture_current_context 000000018001572c     MSVCRT:gs_report.obj
 0002:00001738       $unwind$capture_previous_context 0000000180015738     MSVCRT:gs_report.obj
 0002:00001744       $unwind$__raise_securityfailure 0000000180015744     MSVCRT:gs_report.obj
 0002:0000174c       $unwind$?dllmain_crt_process_attach@@YAHQEAUHINSTANCE__@@QEAX@Z 000000018001574c     MSVCRT:dll_dllmain.obj
 0002:00001788       $unwind$?fin$0@?0??dllmain_crt_process_attach@@YAHQEAUHINSTANCE__@@QEAX@Z@4HA 0000000180015788     MSVCRT:dll_dllmain.obj
 0002:00001790       $unwind$?dllmain_crt_process_detach@@YAH_N@Z 0000000180015790     MSVCRT:dll_dllmain.obj
 0002:000017e4       $unwind$?fin$0@?0??dllmain_crt_process_detach@@YAH_N@Z@4HA 00000001800157e4     MSVCRT:dll_dllmain.obj
 0002:000017ec       $unwind$?fin$1@?0??dllmain_crt_process_detach@@YAH_N@Z@4HA 00000001800157ec     MSVCRT:dll_dllmain.obj
 0002:000017f4       $unwind$?dllmain_crt_dispatch@@YAHQEAUHINSTANCE__@@KQEAX@Z 00000001800157f4     MSVCRT:dll_dllmain.obj
 0002:000017fc       $unwind$?dllmain_dispatch@@YAHQEAUHINSTANCE__@@KQEAX@Z 00000001800157fc     MSVCRT:dll_dllmain.obj
 0002:00001824       $unwind$?filt$0@?0??dllmain_dispatch@@YAHQEAUHINSTANCE__@@KQEAX@Z@4HA 0000000180015824     MSVCRT:dll_dllmain.obj
 0002:0000182c       $unwind$_DllMainCRTStartup 000000018001582c     MSVCRT:dll_dllmain.obj
 0002:0000183c       $unwind$__security_init_cookie 000000018001583c     MSVCRT:gs_support.obj
 0002:00001848       $unwind$__get_entropy      0000000180015848     MSVCRT:gs_support.obj
 0002:00001850       $unwind$DllMain            0000000180015850     MSVCRT:dll_dllmain_stub.obj
 0002:00001858       $unwind$__scrt_initialize_default_local_stdio_options 0000000180015858     MSVCRT:default_local_stdio_options.obj
 0002:00001860       $unwind$atexit             0000000180015860     MSVCRT:utility.obj
 0002:00001868       $unwind$_onexit            0000000180015868     MSVCRT:utility.obj
 0002:00001870       $unwind$__scrt_is_nonwritable_in_current_image 0000000180015870     MSVCRT:utility.obj
 0002:00001890       $unwind$__scrt_is_nonwritable_in_current_image$filt$0 0000000180015890     MSVCRT:utility.obj
 0002:00001898       $unwind$__scrt_acquire_startup_lock 0000000180015898     MSVCRT:utility.obj
 0002:000018a0       $unwind$__scrt_release_startup_lock 00000001800158a0     MSVCRT:utility.obj
 0002:000018a8       $unwind$__scrt_initialize_crt 00000001800158a8     MSVCRT:utility.obj
 0002:000018b0       $unwind$__scrt_uninitialize_crt 00000001800158b0     MSVCRT:utility.obj
 0002:000018b8       $unwind$__scrt_initialize_onexit_tables 00000001800158b8     MSVCRT:utility.obj
 0002:000018c0       $unwind$__scrt_dllmain_exception_filter 00000001800158c0     MSVCRT:utility.obj
 0002:000018d4       $unwind$__scrt_dllmain_before_initialize_c 00000001800158d4     MSVCRT:utility.obj
 0002:000018dc       $unwind$__scrt_dllmain_after_initialize_c 00000001800158dc     MSVCRT:utility.obj
 0002:000018e4       $unwind$__scrt_dllmain_uninitialize_c 00000001800158e4     MSVCRT:utility.obj
 0002:000018ec       $unwind$__scrt_dllmain_uninitialize_critical 00000001800158ec     MSVCRT:utility.obj
 0002:000018f4       $unwind$__scrt_dllmain_crt_thread_attach 00000001800158f4     MSVCRT:utility.obj
 0002:000018fc       $unwind$__scrt_dllmain_crt_thread_detach 00000001800158fc     MSVCRT:utility.obj
 0002:00001904       $unwind$?configure_argv@__scrt_narrow_argv_policy@@SAHXZ 0000000180015904     MSVCRT:utility.obj
 0002:0000190c       $unwind$__scrt_get_show_window_mode 000000018001590c     MSVCRT:utility_desktop.obj
 0002:00001914       $unwind$__scrt_is_managed_app 0000000180015914     MSVCRT:utility_desktop.obj
 0002:0000191c       $unwind$__scrt_fastfail    000000018001591c     MSVCRT:utility_desktop.obj
 0002:0000192c       $unwind$__scrt_unhandled_exception_filter 000000018001592c     MSVCRT:utility_desktop.obj
 0002:00001938       $unwind$_RTC_Initialize    0000000180015938     MSVCRT:initsect.obj
 0002:00001944       $unwind$_RTC_Terminate     0000000180015944     MSVCRT:initsect.obj
 0002:00001950       $unwind$__castguard_check_failure_os_handled_wrapper 0000000180015950     MSVCRT:guard_support.obj
 0002:00001958       $unwind$__castguard_check_failure_user_handled_wrapper 0000000180015958     MSVCRT:guard_support.obj
 0002:00001960       $unwind$__castguard_check_failure_os_handled 0000000180015960     MSVCRT:guard_support.obj
 0002:00001968       $unwind$__castguard_check_failure_user_handled 0000000180015968     MSVCRT:guard_support.obj
 0002:00001970       $unwind$__castguard_slow_path_check_os_handled 0000000180015970     MSVCRT:guard_support.obj
 0002:00001978       $unwind$__castguard_slow_path_check_user_handled 0000000180015978     MSVCRT:guard_support.obj
 0002:00001980       $unwind$__isa_available_init 0000000180015980     MSVCRT:cpu_disp.obj
 0002:00001990       $xdatasym                  0000000180015990     MSVCRT:guard_dispatch.obj
 0002:00001998       $xdatasym                  0000000180015998     MSVCRT:guard_xfg_dispatch.obj
 0002:000019a0       .edata                     00000001800159a0     MotorWorking_cgxe.exp
 0002:000019c8       rgpv                       00000001800159c8     MotorWorking_cgxe.exp
 0002:000019d0       rgszName                   00000001800159d0     MotorWorking_cgxe.exp
 0002:000019d8       rgwOrd                     00000001800159d8     MotorWorking_cgxe.exp
 0002:000019dc       szName                     00000001800159dc     MotorWorking_cgxe.exp
 0002:000019f5       $N00001                    00000001800159f5     MotorWorking_cgxe.exp
 0002:00001a01       $N00002                    0000000180015a01     MotorWorking_cgxe.exp
 0002:00001f90       .idata$6                   0000000180015f90     libmx:libmx.dll
 0002:00001ff4       .idata$6                   0000000180015ff4     libmex:libmex.dll
 0002:0000218e       .idata$6                   000000018001618e     libemlrt:libemlrt.dll
 0002:00002228       .idata$6                   0000000180016228     libmwcgxert:libmwcgxert.dll
 0002:000023c4       .idata$6                   00000001800163c4     kernel32:KERNEL32.dll
 0002:00002452       .idata$6                   0000000180016452     vcruntime:VCRUNTIME140.dll
 0002:000025a0       .idata$6                   00000001800165a0     ucrt:api-ms-win-crt-heap-l1-1-0.dll
 0002:000025c0       .idata$6                   00000001800165c0     ucrt:api-ms-win-crt-string-l1-1-0.dll
 0002:000025e2       .idata$6                   00000001800165e2     ucrt:api-ms-win-crt-stdio-l1-1-0.dll
 0002:00002602       .idata$6                   0000000180016602     ucrt:api-ms-win-crt-runtime-l1-1-0.dll
 0003:00000000       $SG17649                   0000000180017000     m_bg50hRmc6UAsemHLG3AoeE.obj
 0003:00000010       $SG17650                   0000000180017010     m_bg50hRmc6UAsemHLG3AoeE.obj
 0003:0000008c       $SG17652                   000000018001708c     m_bg50hRmc6UAsemHLG3AoeE.obj
 0003:000000a0       $SG17653                   00000001800170a0     m_bg50hRmc6UAsemHLG3AoeE.obj
 0003:00000100       $SG17655                   0000000180017100     m_bg50hRmc6UAsemHLG3AoeE.obj
 0003:00000110       $SG17656                   0000000180017110     m_bg50hRmc6UAsemHLG3AoeE.obj
 0003:00000170       $SG17658                   0000000180017170     m_bg50hRmc6UAsemHLG3AoeE.obj
 0003:00000180       $SG17659                   0000000180017180     m_bg50hRmc6UAsemHLG3AoeE.obj
 0003:000001e0       $SG17676                   00000001800171e0     m_bg50hRmc6UAsemHLG3AoeE.obj
 0003:00000200       $SG17677                   0000000180017200     m_bg50hRmc6UAsemHLG3AoeE.obj
 0003:00000258       $SG17682                   0000000180017258     m_bg50hRmc6UAsemHLG3AoeE.obj
 0003:00000270       $SG17683                   0000000180017270     m_bg50hRmc6UAsemHLG3AoeE.obj
 0003:000002d0       $SG17980                   00000001800172d0     m_bg50hRmc6UAsemHLG3AoeE.obj
 0003:000002e8       $SG17981                   00000001800172e8     m_bg50hRmc6UAsemHLG3AoeE.obj
 0003:000002f8       $SG17982                   00000001800172f8     m_bg50hRmc6UAsemHLG3AoeE.obj
 0003:00000308       $SG17983                   0000000180017308     m_bg50hRmc6UAsemHLG3AoeE.obj
 0003:00000320       $SG18029                   0000000180017320     m_bg50hRmc6UAsemHLG3AoeE.obj
 0003:00000338       $SG18030                   0000000180017338     m_bg50hRmc6UAsemHLG3AoeE.obj
 0003:00000348       $SG18031                   0000000180017348     m_bg50hRmc6UAsemHLG3AoeE.obj
 0003:00000358       $SG18032                   0000000180017358     m_bg50hRmc6UAsemHLG3AoeE.obj
 0003:00000370       emlrtRSI                   0000000180017370     m_bg50hRmc6UAsemHLG3AoeE.obj
 0003:00000388       b_emlrtRSI                 0000000180017388     m_bg50hRmc6UAsemHLG3AoeE.obj
 0003:000003a0       c_emlrtRSI                 00000001800173a0     m_bg50hRmc6UAsemHLG3AoeE.obj
 0003:000003b8       d_emlrtRSI                 00000001800173b8     m_bg50hRmc6UAsemHLG3AoeE.obj
 0003:000003d0       e_emlrtRSI                 00000001800173d0     m_bg50hRmc6UAsemHLG3AoeE.obj
 0003:000003e8       f_emlrtRSI                 00000001800173e8     m_bg50hRmc6UAsemHLG3AoeE.obj
 0003:00000400       g_emlrtRSI                 0000000180017400     m_bg50hRmc6UAsemHLG3AoeE.obj
 0003:00000418       h_emlrtRSI                 0000000180017418     m_bg50hRmc6UAsemHLG3AoeE.obj
 0003:00000430       j_emlrtRSI                 0000000180017430     m_bg50hRmc6UAsemHLG3AoeE.obj
 0003:00000448       k_emlrtRSI                 0000000180017448     m_bg50hRmc6UAsemHLG3AoeE.obj
 0003:00000460       emlrtMCI                   0000000180017460     m_bg50hRmc6UAsemHLG3AoeE.obj
 0003:00000478       ?b_u@?1??mw__internal__call__setup@@9@9 0000000180017478     m_bg50hRmc6UAsemHLG3AoeE.obj
 0003:000004ac       ?d_u@?1??mw__internal__call__setup@@9@9 00000001800174ac     m_bg50hRmc6UAsemHLG3AoeE.obj
 0003:000004b8       ?b_u@?1??SystemCore_checkTunablePropChange@@9@9 00000001800174b8     m_bg50hRmc6UAsemHLG3AoeE.obj
 0003:000004e8       ?b_u@?1??mw__internal__call__reset@@9@9 00000001800174e8     m_bg50hRmc6UAsemHLG3AoeE.obj
 0003:00000518       ?d_u@?1??mw__internal__call__reset@@9@9 0000000180017518     m_bg50hRmc6UAsemHLG3AoeE.obj
 0003:00000520       ?b_u@?1??mw__internal__call__step@@9@9 0000000180017520     m_bg50hRmc6UAsemHLG3AoeE.obj
 0003:00000554       ?d_u@?1??mw__internal__call__step@@9@9 0000000180017554     m_bg50hRmc6UAsemHLG3AoeE.obj
 0003:00000560       ?sv@?1??emlrt_marshallOut@@9@9 0000000180017560     m_bg50hRmc6UAsemHLG3AoeE.obj
 0003:00000580       $SG17984                   0000000180017580     m_bg50hRmc6UAsemHLG3AoeE.obj
 0003:00000598       $SG17985                   0000000180017598     m_bg50hRmc6UAsemHLG3AoeE.obj
 0003:000005a8       $SG17986                   00000001800175a8     m_bg50hRmc6UAsemHLG3AoeE.obj
 0003:000005b8       $SG17987                   00000001800175b8     m_bg50hRmc6UAsemHLG3AoeE.obj
 0003:000005cc       $SG18000                   00000001800175cc     m_bg50hRmc6UAsemHLG3AoeE.obj
 0003:000005d4       $SG18001                   00000001800175d4     m_bg50hRmc6UAsemHLG3AoeE.obj
 0003:000005e0       $SG18002                   00000001800175e0     m_bg50hRmc6UAsemHLG3AoeE.obj
 0003:000005f8       $SG18003                   00000001800175f8     m_bg50hRmc6UAsemHLG3AoeE.obj
 0003:00000610       ?fieldNames@?1??c_emlrt_marshallIn@@9@9 0000000180017610     m_bg50hRmc6UAsemHLG3AoeE.obj
 0003:00000630       $SG18033                   0000000180017630     m_bg50hRmc6UAsemHLG3AoeE.obj
 0003:00000648       $SG18034                   0000000180017648     m_bg50hRmc6UAsemHLG3AoeE.obj
 0003:00000660       $SG18035                   0000000180017660     m_bg50hRmc6UAsemHLG3AoeE.obj
 0003:00000670       $SG18036                   0000000180017670     m_bg50hRmc6UAsemHLG3AoeE.obj
 0003:00000680       $SG18037                   0000000180017680     m_bg50hRmc6UAsemHLG3AoeE.obj
 0003:00000690       $SG18038                   0000000180017690     m_bg50hRmc6UAsemHLG3AoeE.obj
 0003:000006a0       $SG18039                   00000001800176a0     m_bg50hRmc6UAsemHLG3AoeE.obj
 0003:000006b8       $SG18040                   00000001800176b8     m_bg50hRmc6UAsemHLG3AoeE.obj
 0003:000006d0       $SG18074                   00000001800176d0     m_bg50hRmc6UAsemHLG3AoeE.obj
 0003:000006d8       $SG18082                   00000001800176d8     m_bg50hRmc6UAsemHLG3AoeE.obj
 0003:000006e4       $SG18091                   00000001800176e4     m_bg50hRmc6UAsemHLG3AoeE.obj
 0003:000006f0       $SG18099                   00000001800176f0     m_bg50hRmc6UAsemHLG3AoeE.obj
 0003:000006f8       $SG18109                   00000001800176f8     m_bg50hRmc6UAsemHLG3AoeE.obj
 0003:00000700       $SG18120                   0000000180017700     m_bg50hRmc6UAsemHLG3AoeE.obj
 0003:00000708       $SG18214                   0000000180017708     m_bg50hRmc6UAsemHLG3AoeE.obj
 0003:00000728       $SG18223                   0000000180017728     m_bg50hRmc6UAsemHLG3AoeE.obj
 0003:00000738       $SG18225                   0000000180017738     m_bg50hRmc6UAsemHLG3AoeE.obj
 0003:00000750       $SG18226                   0000000180017750     m_bg50hRmc6UAsemHLG3AoeE.obj
 0003:00000760       $SG18227                   0000000180017760     m_bg50hRmc6UAsemHLG3AoeE.obj
 0003:00000780       $SG17649                   0000000180017780     m_dYZZzNbePGHHoKucqxRynD.obj
 0003:00000790       $SG17650                   0000000180017790     m_dYZZzNbePGHHoKucqxRynD.obj
 0003:0000080c       $SG17652                   000000018001780c     m_dYZZzNbePGHHoKucqxRynD.obj
 0003:00000820       $SG17653                   0000000180017820     m_dYZZzNbePGHHoKucqxRynD.obj
 0003:00000880       $SG17655                   0000000180017880     m_dYZZzNbePGHHoKucqxRynD.obj
 0003:00000890       $SG17656                   0000000180017890     m_dYZZzNbePGHHoKucqxRynD.obj
 0003:000008f0       $SG17658                   00000001800178f0     m_dYZZzNbePGHHoKucqxRynD.obj
 0003:00000900       $SG17659                   0000000180017900     m_dYZZzNbePGHHoKucqxRynD.obj
 0003:00000960       $SG17676                   0000000180017960     m_dYZZzNbePGHHoKucqxRynD.obj
 0003:00000980       $SG17677                   0000000180017980     m_dYZZzNbePGHHoKucqxRynD.obj
 0003:000009d8       $SG17682                   00000001800179d8     m_dYZZzNbePGHHoKucqxRynD.obj
 0003:000009f0       $SG17683                   00000001800179f0     m_dYZZzNbePGHHoKucqxRynD.obj
 0003:00000a50       $SG17980                   0000000180017a50     m_dYZZzNbePGHHoKucqxRynD.obj
 0003:00000a68       $SG17981                   0000000180017a68     m_dYZZzNbePGHHoKucqxRynD.obj
 0003:00000a78       $SG17982                   0000000180017a78     m_dYZZzNbePGHHoKucqxRynD.obj
 0003:00000a88       $SG17983                   0000000180017a88     m_dYZZzNbePGHHoKucqxRynD.obj
 0003:00000aa0       $SG18029                   0000000180017aa0     m_dYZZzNbePGHHoKucqxRynD.obj
 0003:00000ab8       $SG18030                   0000000180017ab8     m_dYZZzNbePGHHoKucqxRynD.obj
 0003:00000ac8       $SG18031                   0000000180017ac8     m_dYZZzNbePGHHoKucqxRynD.obj
 0003:00000ad8       $SG18032                   0000000180017ad8     m_dYZZzNbePGHHoKucqxRynD.obj
 0003:00000af0       emlrtRSI                   0000000180017af0     m_dYZZzNbePGHHoKucqxRynD.obj
 0003:00000b08       b_emlrtRSI                 0000000180017b08     m_dYZZzNbePGHHoKucqxRynD.obj
 0003:00000b20       c_emlrtRSI                 0000000180017b20     m_dYZZzNbePGHHoKucqxRynD.obj
 0003:00000b38       d_emlrtRSI                 0000000180017b38     m_dYZZzNbePGHHoKucqxRynD.obj
 0003:00000b50       e_emlrtRSI                 0000000180017b50     m_dYZZzNbePGHHoKucqxRynD.obj
 0003:00000b68       f_emlrtRSI                 0000000180017b68     m_dYZZzNbePGHHoKucqxRynD.obj
 0003:00000b80       g_emlrtRSI                 0000000180017b80     m_dYZZzNbePGHHoKucqxRynD.obj
 0003:00000b98       h_emlrtRSI                 0000000180017b98     m_dYZZzNbePGHHoKucqxRynD.obj
 0003:00000bb0       j_emlrtRSI                 0000000180017bb0     m_dYZZzNbePGHHoKucqxRynD.obj
 0003:00000bc8       k_emlrtRSI                 0000000180017bc8     m_dYZZzNbePGHHoKucqxRynD.obj
 0003:00000be0       emlrtMCI                   0000000180017be0     m_dYZZzNbePGHHoKucqxRynD.obj
 0003:00000bf8       ?b_u@?1??mw__internal__call__setup@@9@9 0000000180017bf8     m_dYZZzNbePGHHoKucqxRynD.obj
 0003:00000c2c       ?d_u@?1??mw__internal__call__setup@@9@9 0000000180017c2c     m_dYZZzNbePGHHoKucqxRynD.obj
 0003:00000c38       ?b_u@?1??SystemCore_checkTunablePropChange@@9@9 0000000180017c38     m_dYZZzNbePGHHoKucqxRynD.obj
 0003:00000c68       ?b_u@?1??mw__internal__call__reset@@9@9 0000000180017c68     m_dYZZzNbePGHHoKucqxRynD.obj
 0003:00000c98       ?d_u@?1??mw__internal__call__reset@@9@9 0000000180017c98     m_dYZZzNbePGHHoKucqxRynD.obj
 0003:00000ca0       ?b_u@?1??mw__internal__call__step@@9@9 0000000180017ca0     m_dYZZzNbePGHHoKucqxRynD.obj
 0003:00000cd4       ?d_u@?1??mw__internal__call__step@@9@9 0000000180017cd4     m_dYZZzNbePGHHoKucqxRynD.obj
 0003:00000ce0       ?sv@?1??emlrt_marshallOut@@9@9 0000000180017ce0     m_dYZZzNbePGHHoKucqxRynD.obj
 0003:00000d00       $SG17984                   0000000180017d00     m_dYZZzNbePGHHoKucqxRynD.obj
 0003:00000d18       $SG17985                   0000000180017d18     m_dYZZzNbePGHHoKucqxRynD.obj
 0003:00000d28       $SG17986                   0000000180017d28     m_dYZZzNbePGHHoKucqxRynD.obj
 0003:00000d38       $SG17987                   0000000180017d38     m_dYZZzNbePGHHoKucqxRynD.obj
 0003:00000d4c       $SG18000                   0000000180017d4c     m_dYZZzNbePGHHoKucqxRynD.obj
 0003:00000d54       $SG18001                   0000000180017d54     m_dYZZzNbePGHHoKucqxRynD.obj
 0003:00000d60       $SG18002                   0000000180017d60     m_dYZZzNbePGHHoKucqxRynD.obj
 0003:00000d78       $SG18003                   0000000180017d78     m_dYZZzNbePGHHoKucqxRynD.obj
 0003:00000d90       ?fieldNames@?1??c_emlrt_marshallIn@@9@9 0000000180017d90     m_dYZZzNbePGHHoKucqxRynD.obj
 0003:00000db0       $SG18033                   0000000180017db0     m_dYZZzNbePGHHoKucqxRynD.obj
 0003:00000dc8       $SG18034                   0000000180017dc8     m_dYZZzNbePGHHoKucqxRynD.obj
 0003:00000de0       $SG18035                   0000000180017de0     m_dYZZzNbePGHHoKucqxRynD.obj
 0003:00000df0       $SG18036                   0000000180017df0     m_dYZZzNbePGHHoKucqxRynD.obj
 0003:00000e00       $SG18037                   0000000180017e00     m_dYZZzNbePGHHoKucqxRynD.obj
 0003:00000e10       $SG18038                   0000000180017e10     m_dYZZzNbePGHHoKucqxRynD.obj
 0003:00000e20       $SG18039                   0000000180017e20     m_dYZZzNbePGHHoKucqxRynD.obj
 0003:00000e38       $SG18040                   0000000180017e38     m_dYZZzNbePGHHoKucqxRynD.obj
 0003:00000e50       $SG18074                   0000000180017e50     m_dYZZzNbePGHHoKucqxRynD.obj
 0003:00000e58       $SG18082                   0000000180017e58     m_dYZZzNbePGHHoKucqxRynD.obj
 0003:00000e64       $SG18091                   0000000180017e64     m_dYZZzNbePGHHoKucqxRynD.obj
 0003:00000e70       $SG18099                   0000000180017e70     m_dYZZzNbePGHHoKucqxRynD.obj
 0003:00000e78       $SG18109                   0000000180017e78     m_dYZZzNbePGHHoKucqxRynD.obj
 0003:00000e80       $SG18120                   0000000180017e80     m_dYZZzNbePGHHoKucqxRynD.obj
 0003:00000e88       $SG18214                   0000000180017e88     m_dYZZzNbePGHHoKucqxRynD.obj
 0003:00000ea8       $SG18223                   0000000180017ea8     m_dYZZzNbePGHHoKucqxRynD.obj
 0003:00000eb8       $SG18225                   0000000180017eb8     m_dYZZzNbePGHHoKucqxRynD.obj
 0003:00000ed0       $SG18226                   0000000180017ed0     m_dYZZzNbePGHHoKucqxRynD.obj
 0003:00000ee0       $SG18227                   0000000180017ee0     m_dYZZzNbePGHHoKucqxRynD.obj
 0003:00000f00       $SG17649                   0000000180017f00     m_mGg5kldJFMUqqcMFYTCXk.obj
 0003:00000f10       $SG17650                   0000000180017f10     m_mGg5kldJFMUqqcMFYTCXk.obj
 0003:00000f8c       $SG17652                   0000000180017f8c     m_mGg5kldJFMUqqcMFYTCXk.obj
 0003:00000fa0       $SG17653                   0000000180017fa0     m_mGg5kldJFMUqqcMFYTCXk.obj
 0003:00001000       $SG17655                   0000000180018000     m_mGg5kldJFMUqqcMFYTCXk.obj
 0003:00001010       $SG17656                   0000000180018010     m_mGg5kldJFMUqqcMFYTCXk.obj
 0003:00001070       $SG17658                   0000000180018070     m_mGg5kldJFMUqqcMFYTCXk.obj
 0003:00001080       $SG17659                   0000000180018080     m_mGg5kldJFMUqqcMFYTCXk.obj
 0003:000010e0       $SG17676                   00000001800180e0     m_mGg5kldJFMUqqcMFYTCXk.obj
 0003:00001100       $SG17677                   0000000180018100     m_mGg5kldJFMUqqcMFYTCXk.obj
 0003:00001158       $SG17682                   0000000180018158     m_mGg5kldJFMUqqcMFYTCXk.obj
 0003:00001170       $SG17683                   0000000180018170     m_mGg5kldJFMUqqcMFYTCXk.obj
 0003:000011d0       $SG17980                   00000001800181d0     m_mGg5kldJFMUqqcMFYTCXk.obj
 0003:000011e8       $SG17981                   00000001800181e8     m_mGg5kldJFMUqqcMFYTCXk.obj
 0003:000011f8       $SG17982                   00000001800181f8     m_mGg5kldJFMUqqcMFYTCXk.obj
 0003:00001208       $SG17983                   0000000180018208     m_mGg5kldJFMUqqcMFYTCXk.obj
 0003:00001220       $SG18029                   0000000180018220     m_mGg5kldJFMUqqcMFYTCXk.obj
 0003:00001238       $SG18030                   0000000180018238     m_mGg5kldJFMUqqcMFYTCXk.obj
 0003:00001248       $SG18031                   0000000180018248     m_mGg5kldJFMUqqcMFYTCXk.obj
 0003:00001258       $SG18032                   0000000180018258     m_mGg5kldJFMUqqcMFYTCXk.obj
 0003:00001270       emlrtRSI                   0000000180018270     m_mGg5kldJFMUqqcMFYTCXk.obj
 0003:00001288       b_emlrtRSI                 0000000180018288     m_mGg5kldJFMUqqcMFYTCXk.obj
 0003:000012a0       c_emlrtRSI                 00000001800182a0     m_mGg5kldJFMUqqcMFYTCXk.obj
 0003:000012b8       d_emlrtRSI                 00000001800182b8     m_mGg5kldJFMUqqcMFYTCXk.obj
 0003:000012d0       e_emlrtRSI                 00000001800182d0     m_mGg5kldJFMUqqcMFYTCXk.obj
 0003:000012e8       f_emlrtRSI                 00000001800182e8     m_mGg5kldJFMUqqcMFYTCXk.obj
 0003:00001300       g_emlrtRSI                 0000000180018300     m_mGg5kldJFMUqqcMFYTCXk.obj
 0003:00001318       h_emlrtRSI                 0000000180018318     m_mGg5kldJFMUqqcMFYTCXk.obj
 0003:00001330       j_emlrtRSI                 0000000180018330     m_mGg5kldJFMUqqcMFYTCXk.obj
 0003:00001348       k_emlrtRSI                 0000000180018348     m_mGg5kldJFMUqqcMFYTCXk.obj
 0003:00001360       emlrtMCI                   0000000180018360     m_mGg5kldJFMUqqcMFYTCXk.obj
 0003:00001378       ?b_u@?1??mw__internal__call__setup@@9@9 0000000180018378     m_mGg5kldJFMUqqcMFYTCXk.obj
 0003:000013ac       ?d_u@?1??mw__internal__call__setup@@9@9 00000001800183ac     m_mGg5kldJFMUqqcMFYTCXk.obj
 0003:000013b8       ?b_u@?1??SystemCore_checkTunablePropChange@@9@9 00000001800183b8     m_mGg5kldJFMUqqcMFYTCXk.obj
 0003:000013e8       ?b_u@?1??mw__internal__call__reset@@9@9 00000001800183e8     m_mGg5kldJFMUqqcMFYTCXk.obj
 0003:00001418       ?d_u@?1??mw__internal__call__reset@@9@9 0000000180018418     m_mGg5kldJFMUqqcMFYTCXk.obj
 0003:00001420       ?b_u@?1??mw__internal__call__step@@9@9 0000000180018420     m_mGg5kldJFMUqqcMFYTCXk.obj
 0003:00001454       ?d_u@?1??mw__internal__call__step@@9@9 0000000180018454     m_mGg5kldJFMUqqcMFYTCXk.obj
 0003:00001460       ?sv@?1??emlrt_marshallOut@@9@9 0000000180018460     m_mGg5kldJFMUqqcMFYTCXk.obj
 0003:00001480       $SG17984                   0000000180018480     m_mGg5kldJFMUqqcMFYTCXk.obj
 0003:00001498       $SG17985                   0000000180018498     m_mGg5kldJFMUqqcMFYTCXk.obj
 0003:000014a8       $SG17986                   00000001800184a8     m_mGg5kldJFMUqqcMFYTCXk.obj
 0003:000014b8       $SG17987                   00000001800184b8     m_mGg5kldJFMUqqcMFYTCXk.obj
 0003:000014cc       $SG18000                   00000001800184cc     m_mGg5kldJFMUqqcMFYTCXk.obj
 0003:000014d4       $SG18001                   00000001800184d4     m_mGg5kldJFMUqqcMFYTCXk.obj
 0003:000014e0       $SG18002                   00000001800184e0     m_mGg5kldJFMUqqcMFYTCXk.obj
 0003:000014f8       $SG18003                   00000001800184f8     m_mGg5kldJFMUqqcMFYTCXk.obj
 0003:00001510       ?fieldNames@?1??c_emlrt_marshallIn@@9@9 0000000180018510     m_mGg5kldJFMUqqcMFYTCXk.obj
 0003:00001530       $SG18033                   0000000180018530     m_mGg5kldJFMUqqcMFYTCXk.obj
 0003:00001548       $SG18034                   0000000180018548     m_mGg5kldJFMUqqcMFYTCXk.obj
 0003:00001560       $SG18035                   0000000180018560     m_mGg5kldJFMUqqcMFYTCXk.obj
 0003:00001570       $SG18036                   0000000180018570     m_mGg5kldJFMUqqcMFYTCXk.obj
 0003:00001580       $SG18037                   0000000180018580     m_mGg5kldJFMUqqcMFYTCXk.obj
 0003:00001590       $SG18038                   0000000180018590     m_mGg5kldJFMUqqcMFYTCXk.obj
 0003:000015a0       $SG18039                   00000001800185a0     m_mGg5kldJFMUqqcMFYTCXk.obj
 0003:000015b8       $SG18040                   00000001800185b8     m_mGg5kldJFMUqqcMFYTCXk.obj
 0003:000015d0       $SG18074                   00000001800185d0     m_mGg5kldJFMUqqcMFYTCXk.obj
 0003:000015d8       $SG18082                   00000001800185d8     m_mGg5kldJFMUqqcMFYTCXk.obj
 0003:000015e4       $SG18091                   00000001800185e4     m_mGg5kldJFMUqqcMFYTCXk.obj
 0003:000015f0       $SG18099                   00000001800185f0     m_mGg5kldJFMUqqcMFYTCXk.obj
 0003:000015f8       $SG18109                   00000001800185f8     m_mGg5kldJFMUqqcMFYTCXk.obj
 0003:00001600       $SG18120                   0000000180018600     m_mGg5kldJFMUqqcMFYTCXk.obj
 0003:00001608       $SG18214                   0000000180018608     m_mGg5kldJFMUqqcMFYTCXk.obj
 0003:00001628       $SG18223                   0000000180018628     m_mGg5kldJFMUqqcMFYTCXk.obj
 0003:00001638       $SG18225                   0000000180018638     m_mGg5kldJFMUqqcMFYTCXk.obj
 0003:00001650       $SG18226                   0000000180018650     m_mGg5kldJFMUqqcMFYTCXk.obj
 0003:00001660       $SG18227                   0000000180018660     m_mGg5kldJFMUqqcMFYTCXk.obj
 0003:00001680       $SG17649                   0000000180018680     m_vhCIMhSDxW7vJ4zd5fVmYF.obj
 0003:00001690       $SG17650                   0000000180018690     m_vhCIMhSDxW7vJ4zd5fVmYF.obj
 0003:0000170c       $SG17652                   000000018001870c     m_vhCIMhSDxW7vJ4zd5fVmYF.obj
 0003:00001720       $SG17653                   0000000180018720     m_vhCIMhSDxW7vJ4zd5fVmYF.obj
 0003:00001780       $SG17655                   0000000180018780     m_vhCIMhSDxW7vJ4zd5fVmYF.obj
 0003:00001790       $SG17656                   0000000180018790     m_vhCIMhSDxW7vJ4zd5fVmYF.obj
 0003:000017f0       $SG17658                   00000001800187f0     m_vhCIMhSDxW7vJ4zd5fVmYF.obj
 0003:00001800       $SG17659                   0000000180018800     m_vhCIMhSDxW7vJ4zd5fVmYF.obj
 0003:00001860       $SG17676                   0000000180018860     m_vhCIMhSDxW7vJ4zd5fVmYF.obj
 0003:00001880       $SG17677                   0000000180018880     m_vhCIMhSDxW7vJ4zd5fVmYF.obj
 0003:000018d8       $SG17682                   00000001800188d8     m_vhCIMhSDxW7vJ4zd5fVmYF.obj
 0003:000018f0       $SG17683                   00000001800188f0     m_vhCIMhSDxW7vJ4zd5fVmYF.obj
 0003:00001950       $SG17980                   0000000180018950     m_vhCIMhSDxW7vJ4zd5fVmYF.obj
 0003:00001968       $SG17981                   0000000180018968     m_vhCIMhSDxW7vJ4zd5fVmYF.obj
 0003:00001978       $SG17982                   0000000180018978     m_vhCIMhSDxW7vJ4zd5fVmYF.obj
 0003:00001988       $SG17983                   0000000180018988     m_vhCIMhSDxW7vJ4zd5fVmYF.obj
 0003:000019a0       $SG18029                   00000001800189a0     m_vhCIMhSDxW7vJ4zd5fVmYF.obj
 0003:000019b8       $SG18030                   00000001800189b8     m_vhCIMhSDxW7vJ4zd5fVmYF.obj
 0003:000019c8       $SG18031                   00000001800189c8     m_vhCIMhSDxW7vJ4zd5fVmYF.obj
 0003:000019d8       $SG18032                   00000001800189d8     m_vhCIMhSDxW7vJ4zd5fVmYF.obj
 0003:000019f0       emlrtRSI                   00000001800189f0     m_vhCIMhSDxW7vJ4zd5fVmYF.obj
 0003:00001a08       b_emlrtRSI                 0000000180018a08     m_vhCIMhSDxW7vJ4zd5fVmYF.obj
 0003:00001a20       c_emlrtRSI                 0000000180018a20     m_vhCIMhSDxW7vJ4zd5fVmYF.obj
 0003:00001a38       d_emlrtRSI                 0000000180018a38     m_vhCIMhSDxW7vJ4zd5fVmYF.obj
 0003:00001a50       e_emlrtRSI                 0000000180018a50     m_vhCIMhSDxW7vJ4zd5fVmYF.obj
 0003:00001a68       f_emlrtRSI                 0000000180018a68     m_vhCIMhSDxW7vJ4zd5fVmYF.obj
 0003:00001a80       g_emlrtRSI                 0000000180018a80     m_vhCIMhSDxW7vJ4zd5fVmYF.obj
 0003:00001a98       h_emlrtRSI                 0000000180018a98     m_vhCIMhSDxW7vJ4zd5fVmYF.obj
 0003:00001ab0       j_emlrtRSI                 0000000180018ab0     m_vhCIMhSDxW7vJ4zd5fVmYF.obj
 0003:00001ac8       k_emlrtRSI                 0000000180018ac8     m_vhCIMhSDxW7vJ4zd5fVmYF.obj
 0003:00001ae0       emlrtMCI                   0000000180018ae0     m_vhCIMhSDxW7vJ4zd5fVmYF.obj
 0003:00001af8       ?b_u@?1??mw__internal__call__setup@@9@9 0000000180018af8     m_vhCIMhSDxW7vJ4zd5fVmYF.obj
 0003:00001b2c       ?d_u@?1??mw__internal__call__setup@@9@9 0000000180018b2c     m_vhCIMhSDxW7vJ4zd5fVmYF.obj
 0003:00001b38       ?b_u@?1??SystemCore_checkTunablePropChange@@9@9 0000000180018b38     m_vhCIMhSDxW7vJ4zd5fVmYF.obj
 0003:00001b68       ?b_u@?1??mw__internal__call__reset@@9@9 0000000180018b68     m_vhCIMhSDxW7vJ4zd5fVmYF.obj
 0003:00001b98       ?d_u@?1??mw__internal__call__reset@@9@9 0000000180018b98     m_vhCIMhSDxW7vJ4zd5fVmYF.obj
 0003:00001ba0       ?b_u@?1??mw__internal__call__step@@9@9 0000000180018ba0     m_vhCIMhSDxW7vJ4zd5fVmYF.obj
 0003:00001bd4       ?d_u@?1??mw__internal__call__step@@9@9 0000000180018bd4     m_vhCIMhSDxW7vJ4zd5fVmYF.obj
 0003:00001be0       ?sv@?1??emlrt_marshallOut@@9@9 0000000180018be0     m_vhCIMhSDxW7vJ4zd5fVmYF.obj
 0003:00001c00       $SG17984                   0000000180018c00     m_vhCIMhSDxW7vJ4zd5fVmYF.obj
 0003:00001c18       $SG17985                   0000000180018c18     m_vhCIMhSDxW7vJ4zd5fVmYF.obj
 0003:00001c28       $SG17986                   0000000180018c28     m_vhCIMhSDxW7vJ4zd5fVmYF.obj
 0003:00001c38       $SG17987                   0000000180018c38     m_vhCIMhSDxW7vJ4zd5fVmYF.obj
 0003:00001c4c       $SG18000                   0000000180018c4c     m_vhCIMhSDxW7vJ4zd5fVmYF.obj
 0003:00001c54       $SG18001                   0000000180018c54     m_vhCIMhSDxW7vJ4zd5fVmYF.obj
 0003:00001c60       $SG18002                   0000000180018c60     m_vhCIMhSDxW7vJ4zd5fVmYF.obj
 0003:00001c78       $SG18003                   0000000180018c78     m_vhCIMhSDxW7vJ4zd5fVmYF.obj
 0003:00001c90       ?fieldNames@?1??c_emlrt_marshallIn@@9@9 0000000180018c90     m_vhCIMhSDxW7vJ4zd5fVmYF.obj
 0003:00001cb0       $SG18033                   0000000180018cb0     m_vhCIMhSDxW7vJ4zd5fVmYF.obj
 0003:00001cc8       $SG18034                   0000000180018cc8     m_vhCIMhSDxW7vJ4zd5fVmYF.obj
 0003:00001ce0       $SG18035                   0000000180018ce0     m_vhCIMhSDxW7vJ4zd5fVmYF.obj
 0003:00001cf0       $SG18036                   0000000180018cf0     m_vhCIMhSDxW7vJ4zd5fVmYF.obj
 0003:00001d00       $SG18037                   0000000180018d00     m_vhCIMhSDxW7vJ4zd5fVmYF.obj
 0003:00001d10       $SG18038                   0000000180018d10     m_vhCIMhSDxW7vJ4zd5fVmYF.obj
 0003:00001d20       $SG18039                   0000000180018d20     m_vhCIMhSDxW7vJ4zd5fVmYF.obj
 0003:00001d38       $SG18040                   0000000180018d38     m_vhCIMhSDxW7vJ4zd5fVmYF.obj
 0003:00001d50       $SG18074                   0000000180018d50     m_vhCIMhSDxW7vJ4zd5fVmYF.obj
 0003:00001d58       $SG18082                   0000000180018d58     m_vhCIMhSDxW7vJ4zd5fVmYF.obj
 0003:00001d64       $SG18091                   0000000180018d64     m_vhCIMhSDxW7vJ4zd5fVmYF.obj
 0003:00001d70       $SG18099                   0000000180018d70     m_vhCIMhSDxW7vJ4zd5fVmYF.obj
 0003:00001d78       $SG18109                   0000000180018d78     m_vhCIMhSDxW7vJ4zd5fVmYF.obj
 0003:00001d80       $SG18120                   0000000180018d80     m_vhCIMhSDxW7vJ4zd5fVmYF.obj
 0003:00001d88       $SG18214                   0000000180018d88     m_vhCIMhSDxW7vJ4zd5fVmYF.obj
 0003:00001da8       $SG18223                   0000000180018da8     m_vhCIMhSDxW7vJ4zd5fVmYF.obj
 0003:00001db8       $SG18225                   0000000180018db8     m_vhCIMhSDxW7vJ4zd5fVmYF.obj
 0003:00001dd0       $SG18226                   0000000180018dd0     m_vhCIMhSDxW7vJ4zd5fVmYF.obj
 0003:00001de0       $SG18227                   0000000180018de0     m_vhCIMhSDxW7vJ4zd5fVmYF.obj
 0003:00001e08       $SG17249                   0000000180018e08     MotorWorking_cgxe_registry.obj
 0003:00001e38       $SG17253                   0000000180018e38     MotorWorking_cgxe_registry.obj
 0003:00001e78       $SG17258                   0000000180018e78     MotorWorking_cgxe_registry.obj
 0003:00001eb0       $SG17263                   0000000180018eb0     MotorWorking_cgxe_registry.obj
 0003:00001ee8       $SG17267                   0000000180018ee8     MotorWorking_cgxe_registry.obj
 0003:00001f20       $SG17307                   0000000180018f20     MotorWorking_cgxe_registry.obj
 0003:00001f28       $SG17309                   0000000180018f28     MotorWorking_cgxe_registry.obj
 0003:00001f30       $SG17311                   0000000180018f30     MotorWorking_cgxe_registry.obj
 0003:00001f3c       $SG17313                   0000000180018f3c     MotorWorking_cgxe_registry.obj
 0003:00001f48       $SG17315                   0000000180018f48     MotorWorking_cgxe_registry.obj
 0003:00001f50       $SG17316                   0000000180018f50     MotorWorking_cgxe_registry.obj
 0003:00001f58       $SG17317                   0000000180018f58     MotorWorking_cgxe_registry.obj
 0003:00001f60       $SG17318                   0000000180018f60     MotorWorking_cgxe_registry.obj
 0003:00001f6c       $SG17319                   0000000180018f6c     MotorWorking_cgxe_registry.obj
 0003:00001f78       $SG17320                   0000000180018f78     MotorWorking_cgxe_registry.obj
 0003:00001f80       $SG17356                   0000000180018f80     MotorWorking_cgxe_registry.obj
 0003:00001fb0       $SG17367                   0000000180018fb0     MotorWorking_cgxe_registry.obj
 0003:00001fe0       $SG17387                   0000000180018fe0     MotorWorking_cgxe_registry.obj
 0003:00001ff8       $SG17389                   0000000180018ff8     MotorWorking_cgxe_registry.obj
 0003:00002010       $SG17391                   0000000180019010     MotorWorking_cgxe_registry.obj
 0003:00002028       $SG17393                   0000000180019028     MotorWorking_cgxe_registry.obj
 0003:00002040       $SG17413                   0000000180019040     MotorWorking_cgxe_registry.obj
 0003:00002058       $SG17415                   0000000180019058     MotorWorking_cgxe_registry.obj
 0003:00002070       $SG17417                   0000000180019070     MotorWorking_cgxe_registry.obj
 0003:00002088       $SG17419                   0000000180019088     MotorWorking_cgxe_registry.obj
 0003:000020a0       $SG17433                   00000001800190a0     MotorWorking_cgxe_registry.obj
 0003:000020b0       $SG17435                   00000001800190b0     MotorWorking_cgxe_registry.obj
 0003:000020c0       $SG17437                   00000001800190c0     MotorWorking_cgxe_registry.obj
 0003:000020d0       $SG17439                   00000001800190d0     MotorWorking_cgxe_registry.obj
 0003:000020e0       $SG17441                   00000001800190e0     MotorWorking_cgxe_registry.obj
 0003:000020f8       $SG17443                   00000001800190f8     MotorWorking_cgxe_registry.obj
 0003:00002110       $SG17454                   0000000180019110     MotorWorking_cgxe_registry.obj
 0003:00002138       _sfcnName                  0000000180019138     MotorWorking_cgxe_registry.obj
 0003:00002170       $SG17469                   0000000180019170     MotorWorking_cgxe_registry.obj
 0003:000021f0       $SG17473                   00000001800191f0     MotorWorking_cgxe_registry.obj
 0003:00002268       $SG17778                   0000000180019268     MotorWorking_cgxe_registry.obj
 0003:00002280       $SG17779                   0000000180019280     MotorWorking_cgxe_registry.obj
 0003:00002298       $SG17791                   0000000180019298     MotorWorking_cgxe_registry.obj
 0003:000022a8       $SG17927                   00000001800192a8     MotorWorking_cgxe_registry.obj
 0003:000022e8       $SG17928                   00000001800192e8     MotorWorking_cgxe_registry.obj
 0003:000022f8       $SG17929                   00000001800192f8     MotorWorking_cgxe_registry.obj
 0003:00002300       $SG17933                   0000000180019300     MotorWorking_cgxe_registry.obj
 0003:00002348       $SG17934                   0000000180019348     MotorWorking_cgxe_registry.obj
 0003:00002358       $SG17935                   0000000180019358     MotorWorking_cgxe_registry.obj
 0003:00002360       $SG17936                   0000000180019360     MotorWorking_cgxe_registry.obj
 0003:000023b8       $SG17937                   00000001800193b8     MotorWorking_cgxe_registry.obj
 0003:000023c8       $SG17938                   00000001800193c8     MotorWorking_cgxe_registry.obj
 0003:000023d0       $SG17958                   00000001800193d0     MotorWorking_cgxe_registry.obj
 0003:00002410       $SG17959                   0000000180019410     MotorWorking_cgxe_registry.obj
 0003:00002420       $SG17960                   0000000180019420     MotorWorking_cgxe_registry.obj
 0003:00002430       $SG17964                   0000000180019430     MotorWorking_cgxe_registry.obj
 0003:00002478       $SG17965                   0000000180019478     MotorWorking_cgxe_registry.obj
 0003:00002488       $SG17966                   0000000180019488     MotorWorking_cgxe_registry.obj
 0003:00002490       $SG17967                   0000000180019490     MotorWorking_cgxe_registry.obj
 0003:000024e8       $SG17968                   00000001800194e8     MotorWorking_cgxe_registry.obj
 0003:000024f8       $SG17969                   00000001800194f8     MotorWorking_cgxe_registry.obj
 0003:00002500       $SG17988                   0000000180019500     MotorWorking_cgxe_registry.obj
 0003:00002550       $SG17989                   0000000180019550     MotorWorking_cgxe_registry.obj
 0003:00002560       $SG17990                   0000000180019560     MotorWorking_cgxe_registry.obj
 0003:00002570       $SG17999                   0000000180019570     MotorWorking_cgxe_registry.obj
 0003:000025d0       $SG18000                   00000001800195d0     MotorWorking_cgxe_registry.obj
 0003:000025d8       $SG18001                   00000001800195d8     MotorWorking_cgxe_registry.obj
 0003:000025e0       $SG18010                   00000001800195e0     MotorWorking_cgxe_registry.obj
 0003:00002640       $SG18011                   0000000180019640     MotorWorking_cgxe_registry.obj
 0003:00002648       $SG18012                   0000000180019648     MotorWorking_cgxe_registry.obj
 0003:00002650       $SG18318                   0000000180019650     MotorWorking_cgxe_registry.obj
 0003:000026d0       $SG18321                   00000001800196d0     MotorWorking_cgxe_registry.obj
 0003:00002750       $SG18326                   0000000180019750     MotorWorking_cgxe_registry.obj
 0003:000027d0       $SG18334                   00000001800197d0     MotorWorking_cgxe_registry.obj
 0003:00002840       $SG18607                   0000000180019840     MotorWorking_cgxe_registry.obj
 0003:000028c0       $SG18612                   00000001800198c0     MotorWorking_cgxe_registry.obj
 0003:00002938       $SG18936                   0000000180019938     MotorWorking_cgxe_registry.obj
 0003:00002950       $SG18949                   0000000180019950     MotorWorking_cgxe_registry.obj
 0003:000029c8       $SG18952                   00000001800199c8     MotorWorking_cgxe_registry.obj
 0003:000029cc       $SG19004                   00000001800199cc     MotorWorking_cgxe_registry.obj
 0003:000029d4       $SG19005                   00000001800199d4     MotorWorking_cgxe_registry.obj
 0003:000029dc       $SG19006                   00000001800199dc     MotorWorking_cgxe_registry.obj
 0003:000029f0       $SG19007                   00000001800199f0     MotorWorking_cgxe_registry.obj
 0003:00002a70       $SG19009                   0000000180019a70     MotorWorking_cgxe_registry.obj
 0003:00002aec       $SG19012                   0000000180019aec     MotorWorking_cgxe_registry.obj
 0003:00002af4       $SG19015                   0000000180019af4     MotorWorking_cgxe_registry.obj
 0003:00002afc       $SG19018                   0000000180019afc     MotorWorking_cgxe_registry.obj
 0003:00002b10       $SG19019                   0000000180019b10     MotorWorking_cgxe_registry.obj
 0003:00002b90       $SG19020                   0000000180019b90     MotorWorking_cgxe_registry.obj
 0003:00002ba0       $SG19022                   0000000180019ba0     MotorWorking_cgxe_registry.obj
 0003:00002bac       $SG19024                   0000000180019bac     MotorWorking_cgxe_registry.obj
 0003:00002bb4       $SG19026                   0000000180019bb4     MotorWorking_cgxe_registry.obj
 0003:00002bc0       $SG19028                   0000000180019bc0     MotorWorking_cgxe_registry.obj
 0003:00002bcc       $SG19030                   0000000180019bcc     MotorWorking_cgxe_registry.obj
 0003:00002bd0       $SG19033                   0000000180019bd0     MotorWorking_cgxe_registry.obj
 0003:00002cb8       $SG19143                   0000000180019cb8     MotorWorking_cgxe_registry.obj
 0003:00002ce8       $SG19144                   0000000180019ce8     MotorWorking_cgxe_registry.obj
 0003:00002cf8       $SG19145                   0000000180019cf8     MotorWorking_cgxe_registry.obj
 0003:00002d00       $SG19147                   0000000180019d00     MotorWorking_cgxe_registry.obj
 0003:00002d38       $SG19148                   0000000180019d38     MotorWorking_cgxe_registry.obj
 0003:00002d48       $SG19149                   0000000180019d48     MotorWorking_cgxe_registry.obj
 0003:00002d50       $SG19152                   0000000180019d50     MotorWorking_cgxe_registry.obj
 0003:00002d88       $SG19153                   0000000180019d88     MotorWorking_cgxe_registry.obj
 0003:00002d98       $SG19154                   0000000180019d98     MotorWorking_cgxe_registry.obj
 0003:00002da0       $SG19156                   0000000180019da0     MotorWorking_cgxe_registry.obj
 0003:00002dd8       $SG19157                   0000000180019dd8     MotorWorking_cgxe_registry.obj
 0003:00002de8       $SG19158                   0000000180019de8     MotorWorking_cgxe_registry.obj
 0003:00002df0       $SG19160                   0000000180019df0     MotorWorking_cgxe_registry.obj
 0003:00002e28       $SG19161                   0000000180019e28     MotorWorking_cgxe_registry.obj
 0003:00002e38       $SG19162                   0000000180019e38     MotorWorking_cgxe_registry.obj
 0003:00002e40       $SG19165                   0000000180019e40     MotorWorking_cgxe_registry.obj
 0003:00002e58       $SG19167                   0000000180019e58     MotorWorking_cgxe_registry.obj
 0003:00002e70       $SG19168                   0000000180019e70     MotorWorking_cgxe_registry.obj
 0003:00002ea8       $SG19169                   0000000180019ea8     MotorWorking_cgxe_registry.obj
 0003:00002eb8       $SG19170                   0000000180019eb8     MotorWorking_cgxe_registry.obj
 0003:00002ec0       $SG19301                   0000000180019ec0     MotorWorking_cgxe_registry.obj
 0003:00002ee0       $SG19302                   0000000180019ee0     MotorWorking_cgxe_registry.obj
 0003:00002f70       $SG19308                   0000000180019f70     MotorWorking_cgxe_registry.obj
 0003:00002f90       $SG19309                   0000000180019f90     MotorWorking_cgxe_registry.obj
 0003:00003020       $SG19315                   000000018001a020     MotorWorking_cgxe_registry.obj
 0003:00003040       $SG19316                   000000018001a040     MotorWorking_cgxe_registry.obj
 0003:000030d0       $SG19322                   000000018001a0d0     MotorWorking_cgxe_registry.obj
 0003:000030f0       $SG19323                   000000018001a0f0     MotorWorking_cgxe_registry.obj
 0003:00003180       $SG19329                   000000018001a180     MotorWorking_cgxe_registry.obj
 0003:000031a0       $SG19330                   000000018001a1a0     MotorWorking_cgxe_registry.obj
 0003:00003230       $SG19334                   000000018001a230     MotorWorking_cgxe_registry.obj
 0003:00003250       $SG19335                   000000018001a250     MotorWorking_cgxe_registry.obj
 0003:000032e0       $SG19339                   000000018001a2e0     MotorWorking_cgxe_registry.obj
 0003:00003310       $SG19340                   000000018001a310     MotorWorking_cgxe_registry.obj
 0003:000033a0       $SG19344                   000000018001a3a0     MotorWorking_cgxe_registry.obj
 0003:000033d0       $SG19345                   000000018001a3d0     MotorWorking_cgxe_registry.obj
 0003:00003460       $SG19349                   000000018001a460     MotorWorking_cgxe_registry.obj
 0003:00003480       $SG19350                   000000018001a480     MotorWorking_cgxe_registry.obj
 0003:00003510       $SG19354                   000000018001a510     MotorWorking_cgxe_registry.obj
 0003:00003530       $SG19355                   000000018001a530     MotorWorking_cgxe_registry.obj
 0003:000035c0       $SG19359                   000000018001a5c0     MotorWorking_cgxe_registry.obj
 0003:000035e0       $SG19360                   000000018001a5e0     MotorWorking_cgxe_registry.obj
 0003:00003670       $SG19364                   000000018001a670     MotorWorking_cgxe_registry.obj
 0003:00003690       $SG19365                   000000018001a690     MotorWorking_cgxe_registry.obj
 0003:00003720       $SG19369                   000000018001a720     MotorWorking_cgxe_registry.obj
 0003:00003740       $SG19370                   000000018001a740     MotorWorking_cgxe_registry.obj
 0003:000037d0       $SG19374                   000000018001a7d0     MotorWorking_cgxe_registry.obj
 0003:000037f0       $SG19375                   000000018001a7f0     MotorWorking_cgxe_registry.obj
 0003:00003880       $SG19379                   000000018001a880     MotorWorking_cgxe_registry.obj
 0003:000038a0       $SG19380                   000000018001a8a0     MotorWorking_cgxe_registry.obj
 0003:00003930       $SG19384                   000000018001a930     MotorWorking_cgxe_registry.obj
 0003:00003950       $SG19385                   000000018001a950     MotorWorking_cgxe_registry.obj
 0003:000039e0       $SG19389                   000000018001a9e0     MotorWorking_cgxe_registry.obj
 0003:00003a00       $SG19390                   000000018001aa00     MotorWorking_cgxe_registry.obj
 0003:00003a90       $SG19395                   000000018001aa90     MotorWorking_cgxe_registry.obj
 0003:00003ab0       $SG19396                   000000018001aab0     MotorWorking_cgxe_registry.obj
 0003:00003b40       $SG19401                   000000018001ab40     MotorWorking_cgxe_registry.obj
 0003:00003b60       $SG19402                   000000018001ab60     MotorWorking_cgxe_registry.obj
 0003:00003bf0       $SG19406                   000000018001abf0     MotorWorking_cgxe_registry.obj
 0003:00003c00       $SG19407                   000000018001ac00     MotorWorking_cgxe_registry.obj
 0003:00003c90       $SG19411                   000000018001ac90     MotorWorking_cgxe_registry.obj
 0003:00003cb0       $SG19412                   000000018001acb0     MotorWorking_cgxe_registry.obj
 0003:00003d40       $SG19420                   000000018001ad40     MotorWorking_cgxe_registry.obj
 0003:00003d50       $SG19421                   000000018001ad50     MotorWorking_cgxe_registry.obj
 0003:00003de0       $SG19425                   000000018001ade0     MotorWorking_cgxe_registry.obj
 0003:00003e60       $SG19427                   000000018001ae60     MotorWorking_cgxe_registry.obj
 0003:00003ee0       $SG19431                   000000018001aee0     MotorWorking_cgxe_registry.obj
 0003:00003f60       $SG19454                   000000018001af60     MotorWorking_cgxe_registry.obj
 0003:00004078       $SG19462                   000000018001b078     MotorWorking_cgxe_registry.obj
 0003:00004088       $SG19469                   000000018001b088     MotorWorking_cgxe_registry.obj
 0003:00004098       $SG19477                   000000018001b098     MotorWorking_cgxe_registry.obj
 0003:000040a8       $SG19484                   000000018001b0a8     MotorWorking_cgxe_registry.obj
 0003:000040b8       $SG19492                   000000018001b0b8     MotorWorking_cgxe_registry.obj
 0003:000040c8       $SG19499                   000000018001b0c8     MotorWorking_cgxe_registry.obj
 0003:000040d8       $SG19505                   000000018001b0d8     MotorWorking_cgxe_registry.obj
 0003:000040f8       $SG19515                   000000018001b0f8     MotorWorking_cgxe_registry.obj
 0003:00004128       $SG19516                   000000018001b128     MotorWorking_cgxe_registry.obj
 0003:00004130       $SG19517                   000000018001b130     MotorWorking_cgxe_registry.obj
 0003:00004138       $SG19527                   000000018001b138     MotorWorking_cgxe_registry.obj
 0003:00004170       $SG19528                   000000018001b170     MotorWorking_cgxe_registry.obj
 0003:00004178       $SG19529                   000000018001b178     MotorWorking_cgxe_registry.obj
 0003:000041c0       $SG17661                   000000018001b1c0     m_bg50hRmc6UAsemHLG3AoeE.obj
 0003:000041c1       $SG17662                   000000018001b1c1     m_bg50hRmc6UAsemHLG3AoeE.obj
 0003:000041c2       $SG17664                   000000018001b1c2     m_bg50hRmc6UAsemHLG3AoeE.obj
 0003:000041c3       $SG17665                   000000018001b1c3     m_bg50hRmc6UAsemHLG3AoeE.obj
 0003:000041c4       $SG17667                   000000018001b1c4     m_bg50hRmc6UAsemHLG3AoeE.obj
 0003:000041c5       $SG17668                   000000018001b1c5     m_bg50hRmc6UAsemHLG3AoeE.obj
 0003:000041c6       $SG17670                   000000018001b1c6     m_bg50hRmc6UAsemHLG3AoeE.obj
 0003:000041c7       $SG17671                   000000018001b1c7     m_bg50hRmc6UAsemHLG3AoeE.obj
 0003:000041c8       $SG17673                   000000018001b1c8     m_bg50hRmc6UAsemHLG3AoeE.obj
 0003:000041c9       $SG17674                   000000018001b1c9     m_bg50hRmc6UAsemHLG3AoeE.obj
 0003:000041ca       $SG17679                   000000018001b1ca     m_bg50hRmc6UAsemHLG3AoeE.obj
 0003:000041cb       $SG17680                   000000018001b1cb     m_bg50hRmc6UAsemHLG3AoeE.obj
 0003:000041cc       $SG17661                   000000018001b1cc     m_dYZZzNbePGHHoKucqxRynD.obj
 0003:000041cd       $SG17662                   000000018001b1cd     m_dYZZzNbePGHHoKucqxRynD.obj
 0003:000041ce       $SG17664                   000000018001b1ce     m_dYZZzNbePGHHoKucqxRynD.obj
 0003:000041cf       $SG17665                   000000018001b1cf     m_dYZZzNbePGHHoKucqxRynD.obj
 0003:000041d0       $SG17667                   000000018001b1d0     m_dYZZzNbePGHHoKucqxRynD.obj
 0003:000041d1       $SG17668                   000000018001b1d1     m_dYZZzNbePGHHoKucqxRynD.obj
 0003:000041d2       $SG17670                   000000018001b1d2     m_dYZZzNbePGHHoKucqxRynD.obj
 0003:000041d3       $SG17671                   000000018001b1d3     m_dYZZzNbePGHHoKucqxRynD.obj
 0003:000041d4       $SG17673                   000000018001b1d4     m_dYZZzNbePGHHoKucqxRynD.obj
 0003:000041d5       $SG17674                   000000018001b1d5     m_dYZZzNbePGHHoKucqxRynD.obj
 0003:000041d6       $SG17679                   000000018001b1d6     m_dYZZzNbePGHHoKucqxRynD.obj
 0003:000041d7       $SG17680                   000000018001b1d7     m_dYZZzNbePGHHoKucqxRynD.obj
 0003:000041d8       $SG17661                   000000018001b1d8     m_mGg5kldJFMUqqcMFYTCXk.obj
 0003:000041d9       $SG17662                   000000018001b1d9     m_mGg5kldJFMUqqcMFYTCXk.obj
 0003:000041da       $SG17664                   000000018001b1da     m_mGg5kldJFMUqqcMFYTCXk.obj
 0003:000041db       $SG17665                   000000018001b1db     m_mGg5kldJFMUqqcMFYTCXk.obj
 0003:000041dc       $SG17667                   000000018001b1dc     m_mGg5kldJFMUqqcMFYTCXk.obj
 0003:000041dd       $SG17668                   000000018001b1dd     m_mGg5kldJFMUqqcMFYTCXk.obj
 0003:000041de       $SG17670                   000000018001b1de     m_mGg5kldJFMUqqcMFYTCXk.obj
 0003:000041df       $SG17671                   000000018001b1df     m_mGg5kldJFMUqqcMFYTCXk.obj
 0003:000041e0       $SG17673                   000000018001b1e0     m_mGg5kldJFMUqqcMFYTCXk.obj
 0003:000041e1       $SG17674                   000000018001b1e1     m_mGg5kldJFMUqqcMFYTCXk.obj
 0003:000041e2       $SG17679                   000000018001b1e2     m_mGg5kldJFMUqqcMFYTCXk.obj
 0003:000041e3       $SG17680                   000000018001b1e3     m_mGg5kldJFMUqqcMFYTCXk.obj
 0003:000041e4       $SG17661                   000000018001b1e4     m_vhCIMhSDxW7vJ4zd5fVmYF.obj
 0003:000041e5       $SG17662                   000000018001b1e5     m_vhCIMhSDxW7vJ4zd5fVmYF.obj
 0003:000041e6       $SG17664                   000000018001b1e6     m_vhCIMhSDxW7vJ4zd5fVmYF.obj
 0003:000041e7       $SG17665                   000000018001b1e7     m_vhCIMhSDxW7vJ4zd5fVmYF.obj
 0003:000041e8       $SG17667                   000000018001b1e8     m_vhCIMhSDxW7vJ4zd5fVmYF.obj
 0003:000041e9       $SG17668                   000000018001b1e9     m_vhCIMhSDxW7vJ4zd5fVmYF.obj
 0003:000041ea       $SG17670                   000000018001b1ea     m_vhCIMhSDxW7vJ4zd5fVmYF.obj
 0003:000041eb       $SG17671                   000000018001b1eb     m_vhCIMhSDxW7vJ4zd5fVmYF.obj
 0003:000041ec       $SG17673                   000000018001b1ec     m_vhCIMhSDxW7vJ4zd5fVmYF.obj
 0003:000041ed       $SG17674                   000000018001b1ed     m_vhCIMhSDxW7vJ4zd5fVmYF.obj
 0003:000041ee       $SG17679                   000000018001b1ee     m_vhCIMhSDxW7vJ4zd5fVmYF.obj
 0003:000041ef       $SG17680                   000000018001b1ef     m_vhCIMhSDxW7vJ4zd5fVmYF.obj
 0003:000041f0       $SG19000                   000000018001b1f0     MotorWorking_cgxe_registry.obj
 0003:000041f2       ?warningGuard@?1??ssGetRootSS@@9@9 000000018001b1f2     MotorWorking_cgxe_registry.obj
 0003:000041f3       ?warningGuard@?1??ssGetParentSS@@9@9 000000018001b1f3     MotorWorking_cgxe_registry.obj
 0003:00004200       GS_ExceptionRecord         000000018001b200     MSVCRT:gs_report.obj
 0003:000042a0       GS_ContextRecord           000000018001b2a0     MSVCRT:gs_report.obj
 0003:00004770       ?__proc_attached@@3HA      000000018001b770     MSVCRT:dll_dllmain.obj
 0003:000047b0       ?is_initialized_as_dll@@3_NA 000000018001b7b0     MSVCRT:utility.obj
 0003:000047b1       ?module_local_atexit_table_initialized@@3_NA 000000018001b7b1     MSVCRT:utility.obj
 0003:000047b8       ?module_local_atexit_table@@3U_onexit_table_t@@A 000000018001b7b8     MSVCRT:utility.obj
 0003:000047d0       ?module_local_at_quick_exit_table@@3U_onexit_table_t@@A 000000018001b7d0     MSVCRT:utility.obj
